Archive member included because of file (symbol)

c:/ti/ccsv6/tools/compiler/gcc-arm-none-eabi-4_8-2014q3/bin/../lib/gcc/arm-none-eabi/4.8.4/../../../../arm-none-eabi/lib/armv7e-m/fpu\libc.a(lib_a-exit.o)
                              c:/ti/ccsv6/tools/compiler/gcc-arm-none-eabi-4_8-2014q3/bin/../lib/gcc/arm-none-eabi/4.8.4/../../../../arm-none-eabi/lib/armv7e-m/fpu/crt0.o (exit)
c:/ti/ccsv6/tools/compiler/gcc-arm-none-eabi-4_8-2014q3/bin/../lib/gcc/arm-none-eabi/4.8.4/../../../../arm-none-eabi/lib/armv7e-m/fpu\libc.a(lib_a-impure.o)
                              c:/ti/ccsv6/tools/compiler/gcc-arm-none-eabi-4_8-2014q3/bin/../lib/gcc/arm-none-eabi/4.8.4/../../../../arm-none-eabi/lib/armv7e-m/fpu\libc.a(lib_a-exit.o) (_global_impure_ptr)
c:/ti/ccsv6/tools/compiler/gcc-arm-none-eabi-4_8-2014q3/bin/../lib/gcc/arm-none-eabi/4.8.4/../../../../arm-none-eabi/lib/armv7e-m/fpu\libc.a(lib_a-init.o)
                              c:/ti/ccsv6/tools/compiler/gcc-arm-none-eabi-4_8-2014q3/bin/../lib/gcc/arm-none-eabi/4.8.4/../../../../arm-none-eabi/lib/armv7e-m/fpu/crt0.o (__libc_init_array)
c:/ti/ccsv6/tools/compiler/gcc-arm-none-eabi-4_8-2014q3/bin/../lib/gcc/arm-none-eabi/4.8.4/../../../../arm-none-eabi/lib/armv7e-m/fpu\libc.a(lib_a-memset.o)
                              c:/ti/ccsv6/tools/compiler/gcc-arm-none-eabi-4_8-2014q3/bin/../lib/gcc/arm-none-eabi/4.8.4/../../../../arm-none-eabi/lib/armv7e-m/fpu/crt0.o (memset)
c:/ti/ccsv6/tools/compiler/gcc-arm-none-eabi-4_8-2014q3/bin/../lib/gcc/arm-none-eabi/4.8.4/../../../../arm-none-eabi/lib/armv7e-m/fpu\libc.a(lib_a-__call_atexit.o)
                              c:/ti/ccsv6/tools/compiler/gcc-arm-none-eabi-4_8-2014q3/bin/../lib/gcc/arm-none-eabi/4.8.4/../../../../arm-none-eabi/lib/armv7e-m/fpu\libc.a(lib_a-exit.o) (__call_exitprocs)
c:/ti/ccsv6/tools/compiler/gcc-arm-none-eabi-4_8-2014q3/bin/../lib/gcc/arm-none-eabi/4.8.4/../../../../arm-none-eabi/lib/armv7e-m/fpu\libc.a(lib_a-atexit.o)
                              c:/ti/ccsv6/tools/compiler/gcc-arm-none-eabi-4_8-2014q3/bin/../lib/gcc/arm-none-eabi/4.8.4/../../../../arm-none-eabi/lib/armv7e-m/fpu\libc.a(lib_a-__call_atexit.o) (atexit)
c:/ti/ccsv6/tools/compiler/gcc-arm-none-eabi-4_8-2014q3/bin/../lib/gcc/arm-none-eabi/4.8.4/../../../../arm-none-eabi/lib/armv7e-m/fpu\libc.a(lib_a-fini.o)
                              c:/ti/ccsv6/tools/compiler/gcc-arm-none-eabi-4_8-2014q3/bin/../lib/gcc/arm-none-eabi/4.8.4/../../../../arm-none-eabi/lib/armv7e-m/fpu\libc.a(lib_a-__call_atexit.o) (__libc_fini_array)
c:/ti/ccsv6/tools/compiler/gcc-arm-none-eabi-4_8-2014q3/bin/../lib/gcc/arm-none-eabi/4.8.4/../../../../arm-none-eabi/lib/armv7e-m/fpu\libc.a(lib_a-__atexit.o)
                              c:/ti/ccsv6/tools/compiler/gcc-arm-none-eabi-4_8-2014q3/bin/../lib/gcc/arm-none-eabi/4.8.4/../../../../arm-none-eabi/lib/armv7e-m/fpu\libc.a(lib_a-atexit.o) (__register_exitproc)
c:/ti/ccsv6/tools/compiler/gcc-arm-none-eabi-4_8-2014q3/bin/../lib/gcc/arm-none-eabi/4.8.4/../../../../arm-none-eabi/lib/armv7e-m/fpu\libnosys.a(_exit.o)
                              c:/ti/ccsv6/tools/compiler/gcc-arm-none-eabi-4_8-2014q3/bin/../lib/gcc/arm-none-eabi/4.8.4/../../../../arm-none-eabi/lib/armv7e-m/fpu\libc.a(lib_a-exit.o) (_exit)

Allocating common symbols
Common symbol       size              file

sUART               0x4               ./tarefas.o
th7                 0x4               ./main.o
BRTOS_Sem_Table     0xa0              ./brtos/BRTOS.o
g_pui8RxBufferWorkspace
                    0x18              ./USB/usb_serial_structs.o
mutexTx             0x4               ./tarefas.o
BRTOS_Queue_Table   0xf0              ./brtos/BRTOS.o
NumberOfInstalledTasks
                    0x1               ./brtos/BRTOS.o
SPvalue             0x4               ./hal/HAL.o
PriorityVector      0x20              ./brtos/BRTOS.o
SelectedTask        0x1               ./brtos/BRTOS.o
g_ppCompConfigDescriptors
                    0x4               ./usblib/device/usbdcomp.o
qKeyboard           0x4               ./tarefas.o
currentTask         0x1               ./brtos/BRTOS.o
g_psDCDInst         0x50              ./usblib/device/usbdenum.o
QUEUE_STACK         0x400             ./brtos/BRTOS.o
th4                 0x4               ./main.o
text                0x180             ./USB/cdc/usb_terminal_commands.o
thst                0x4               ./main.o
qUART               0x4               ./tarefas.o
g_pui8TxBufferWorkspace
                    0x18              ./USB/usb_serial_structs.o
USB                 0x4               ./USB/cdc/virtual_com.o
sKeyboard           0x4               ./tarefas.o
th5                 0x4               ./main.o
g_pui8USBRxBuffer   0x100             ./USB/usb_serial_structs.o
BRTOS_Mutex_Table   0x30              ./brtos/BRTOS.o
BRTOS_Mbox_Table    0x3c              ./brtos/BRTOS.o
STACK               0x3000            ./brtos/BRTOS.o
g_eOTGModeState     0x1               ./usblib/usbmode.o
Head                0x4               ./brtos/BRTOS.o
g_pui8USBTxBuffer   0x100             ./USB/usb_serial_structs.o
th6                 0x4               ./main.o
g_ui32PollRate      0x4               ./usblib/usbmode.o
g_ppsDevInfo        0x4               ./usblib/device/usbdenum.o
th1                 0x4               ./main.o
g_pvTickInstance    0x18              ./usblib/usbtick.o
g_pcStatus          0x4               ./USB/cdc/virtual_com.o
th3                 0x4               ./main.o
th2                 0x4               ./main.o
entradas            0x80              ./USB/cdc/usb_terminal_commands.o
ContextTask         0x108             ./brtos/BRTOS.o
Tail                0x4               ./brtos/BRTOS.o
BRTOS_OS_QUEUE_Table
                    0x190             ./brtos/BRTOS.o
g_pfnTickHandlers   0x18              ./usblib/usbtick.o

Memory Configuration

Name             Origin             Length             Attributes
FLASH            0x00000000         0x00040000         xr
SRAM             0x20000000         0x00008000         xw
*default*        0x00000000         0xffffffff

Linker script and memory map

LOAD c:/ti/ccsv6/tools/compiler/gcc-arm-none-eabi-4_8-2014q3/bin/../lib/gcc/arm-none-eabi/4.8.4/armv7e-m/fpu/crti.o
LOAD c:/ti/ccsv6/tools/compiler/gcc-arm-none-eabi-4_8-2014q3/bin/../lib/gcc/arm-none-eabi/4.8.4/armv7e-m/fpu/crtbegin.o
LOAD c:/ti/ccsv6/tools/compiler/gcc-arm-none-eabi-4_8-2014q3/bin/../lib/gcc/arm-none-eabi/4.8.4/../../../../arm-none-eabi/lib/armv7e-m/fpu/crt0.o
LOAD ./buttons.o
LOAD ./main.o
LOAD ./rgb.o
LOAD ./tarefas.o
LOAD ./tm4c123gh6pm_startup_ccs_gcc.o
LOAD ./usblib/usbbuffer.o
LOAD ./usblib/usbdesc.o
LOAD ./usblib/usbdma.o
LOAD ./usblib/usbkeyboardmap.o
LOAD ./usblib/usbmode.o
LOAD ./usblib/usbringbuf.o
LOAD ./usblib/usbtick.o
LOAD ./usblib/usbulpi.o
LOAD ./usblib/host/usbhaudio.o
LOAD ./usblib/host/usbhhid.o
LOAD ./usblib/host/usbhhidkeyboard.o
LOAD ./usblib/host/usbhhidmouse.o
LOAD ./usblib/host/usbhhub.o
LOAD ./usblib/host/usbhmsc.o
LOAD ./usblib/host/usbhostenum.o
LOAD ./usblib/host/usbhscsi.o
LOAD ./usblib/device/usbdaudio.o
LOAD ./usblib/device/usbdbulk.o
LOAD ./usblib/device/usbdcdc.o
LOAD ./usblib/device/usbdcdesc.o
LOAD ./usblib/device/usbdcomp.o
LOAD ./usblib/device/usbdconfig.o
LOAD ./usblib/device/usbddfu-rt.o
LOAD ./usblib/device/usbdenum.o
LOAD ./usblib/device/usbdhandler.o
LOAD ./usblib/device/usbdhid.o
LOAD ./usblib/device/usbdhidkeyb.o
LOAD ./usblib/device/usbdhidmouse.o
LOAD ./usblib/device/usbdmsc.o
LOAD ./hal/HAL.o
LOAD ./driverlib/cpu.o
LOAD ./driverlib/fpu.o
LOAD ./driverlib/gpio.o
LOAD ./driverlib/interrupt.o
LOAD ./driverlib/sysctl.o
LOAD ./driverlib/timer.o
LOAD ./driverlib/uart.o
LOAD ./driverlib/usb.o
LOAD ./driverlib/watchdog.o
LOAD ./brtos/BRTOS.o
LOAD ./brtos/OSInfo.o
LOAD ./brtos/OSTime.o
LOAD ./brtos/mbox.o
LOAD ./brtos/mutex.o
LOAD ./brtos/queue.o
LOAD ./brtos/semaphore.o
LOAD ./brtos/stimer.o
LOAD ./USB/usb_serial_structs.o
LOAD ./USB/cdc/usb_terminal.o
LOAD ./USB/cdc/usb_terminal_commands.o
LOAD ./USB/cdc/virtual_com.o
                0x00000000                PROVIDE (_intvecs_base_address, 0x0)

.intvecs        0x00000000      0x26c
 *(.intvecs)
 .intvecs       0x00000000      0x26c ./tm4c123gh6pm_startup_ccs_gcc.o
                0x00000000                g_pfnVectors
                0x20000000                PROVIDE (_vtable_base_address, 0x20000000)

.vtable
 *(.vtable)

.text           0x0000026c    0x1b3e0
 CREATE_OBJECT_SYMBOLS
 *(.text)
 .text          0x0000026c        0x0 c:/ti/ccsv6/tools/compiler/gcc-arm-none-eabi-4_8-2014q3/bin/../lib/gcc/arm-none-eabi/4.8.4/armv7e-m/fpu/crti.o
 .text          0x0000026c       0x54 c:/ti/ccsv6/tools/compiler/gcc-arm-none-eabi-4_8-2014q3/bin/../lib/gcc/arm-none-eabi/4.8.4/armv7e-m/fpu/crtbegin.o
 .text          0x000002c0       0x74 c:/ti/ccsv6/tools/compiler/gcc-arm-none-eabi-4_8-2014q3/bin/../lib/gcc/arm-none-eabi/4.8.4/../../../../arm-none-eabi/lib/armv7e-m/fpu/crt0.o
                0x000002c0                _start
                0x000002c0                _mainCRTStartup
 .text          0x00000334        0x0 ./buttons.o
 .text          0x00000334        0x0 ./main.o
 .text          0x00000334        0x0 ./rgb.o
 .text          0x00000334        0x0 ./tarefas.o
 .text          0x00000334        0x0 ./tm4c123gh6pm_startup_ccs_gcc.o
 .text          0x00000334        0x0 ./usblib/usbbuffer.o
 .text          0x00000334        0x0 ./usblib/usbdesc.o
 .text          0x00000334        0x0 ./usblib/usbdma.o
 .text          0x00000334        0x0 ./usblib/usbkeyboardmap.o
 .text          0x00000334        0x0 ./usblib/usbmode.o
 .text          0x00000334        0x0 ./usblib/usbringbuf.o
 .text          0x00000334        0x0 ./usblib/usbtick.o
 .text          0x00000334        0x0 ./usblib/usbulpi.o
 .text          0x00000334        0x0 ./usblib/host/usbhaudio.o
 .text          0x00000334        0x0 ./usblib/host/usbhhid.o
 .text          0x00000334        0x0 ./usblib/host/usbhhidkeyboard.o
 .text          0x00000334        0x0 ./usblib/host/usbhhidmouse.o
 .text          0x00000334        0x0 ./usblib/host/usbhhub.o
 .text          0x00000334        0x0 ./usblib/host/usbhmsc.o
 .text          0x00000334        0x0 ./usblib/host/usbhostenum.o
 .text          0x00000334        0x0 ./usblib/host/usbhscsi.o
 .text          0x00000334        0x0 ./usblib/device/usbdaudio.o
 .text          0x00000334        0x0 ./usblib/device/usbdbulk.o
 .text          0x00000334        0x0 ./usblib/device/usbdcdc.o
 .text          0x00000334        0x0 ./usblib/device/usbdcdesc.o
 .text          0x00000334        0x0 ./usblib/device/usbdcomp.o
 .text          0x00000334        0x0 ./usblib/device/usbdconfig.o
 .text          0x00000334        0x0 ./usblib/device/usbddfu-rt.o
 .text          0x00000334        0x0 ./usblib/device/usbdenum.o
 .text          0x00000334        0x0 ./usblib/device/usbdhandler.o
 .text          0x00000334        0x0 ./usblib/device/usbdhid.o
 .text          0x00000334        0x0 ./usblib/device/usbdhidkeyb.o
 .text          0x00000334        0x0 ./usblib/device/usbdhidmouse.o
 .text          0x00000334        0x0 ./usblib/device/usbdmsc.o
 .text          0x00000334        0x0 ./hal/HAL.o
 .text          0x00000334        0x0 ./driverlib/cpu.o
 .text          0x00000334        0x0 ./driverlib/fpu.o
 .text          0x00000334        0x0 ./driverlib/gpio.o
 .text          0x00000334        0x0 ./driverlib/interrupt.o
 .text          0x00000334        0x0 ./driverlib/sysctl.o
 .text          0x00000334        0x0 ./driverlib/timer.o
 .text          0x00000334        0x0 ./driverlib/uart.o
 .text          0x00000334        0x0 ./driverlib/usb.o
 .text          0x00000334        0x0 ./driverlib/watchdog.o
 .text          0x00000334        0x0 ./brtos/BRTOS.o
 .text          0x00000334        0x0 ./brtos/OSInfo.o
 .text          0x00000334        0x0 ./brtos/OSTime.o
 .text          0x00000334        0x0 ./brtos/mbox.o
 .text          0x00000334        0x0 ./brtos/mutex.o
 .text          0x00000334        0x0 ./brtos/queue.o
 .text          0x00000334        0x0 ./brtos/semaphore.o
 .text          0x00000334        0x0 ./brtos/stimer.o
 .text          0x00000334        0x0 ./USB/usb_serial_structs.o
 .text          0x00000334        0x0 ./USB/cdc/usb_terminal.o
 .text          0x00000334        0x0 ./USB/cdc/usb_terminal_commands.o
 .text          0x00000334        0x0 ./USB/cdc/virtual_com.o
 .text          0x00000334        0x0 c:/ti/ccsv6/tools/compiler/gcc-arm-none-eabi-4_8-2014q3/bin/../lib/gcc/arm-none-eabi/4.8.4/../../../../arm-none-eabi/lib/armv7e-m/fpu\libc.a(lib_a-exit.o)
 .text          0x00000334        0x0 c:/ti/ccsv6/tools/compiler/gcc-arm-none-eabi-4_8-2014q3/bin/../lib/gcc/arm-none-eabi/4.8.4/../../../../arm-none-eabi/lib/armv7e-m/fpu\libc.a(lib_a-impure.o)
 .text          0x00000334        0x0 c:/ti/ccsv6/tools/compiler/gcc-arm-none-eabi-4_8-2014q3/bin/../lib/gcc/arm-none-eabi/4.8.4/../../../../arm-none-eabi/lib/armv7e-m/fpu\libc.a(lib_a-init.o)
 .text          0x00000334        0x0 c:/ti/ccsv6/tools/compiler/gcc-arm-none-eabi-4_8-2014q3/bin/../lib/gcc/arm-none-eabi/4.8.4/../../../../arm-none-eabi/lib/armv7e-m/fpu\libc.a(lib_a-memset.o)
 .text          0x00000334        0x0 c:/ti/ccsv6/tools/compiler/gcc-arm-none-eabi-4_8-2014q3/bin/../lib/gcc/arm-none-eabi/4.8.4/../../../../arm-none-eabi/lib/armv7e-m/fpu\libc.a(lib_a-__call_atexit.o)
 .text          0x00000334        0x0 c:/ti/ccsv6/tools/compiler/gcc-arm-none-eabi-4_8-2014q3/bin/../lib/gcc/arm-none-eabi/4.8.4/../../../../arm-none-eabi/lib/armv7e-m/fpu\libc.a(lib_a-atexit.o)
 .text          0x00000334        0x0 c:/ti/ccsv6/tools/compiler/gcc-arm-none-eabi-4_8-2014q3/bin/../lib/gcc/arm-none-eabi/4.8.4/../../../../arm-none-eabi/lib/armv7e-m/fpu\libc.a(lib_a-fini.o)
 .text          0x00000334        0x0 c:/ti/ccsv6/tools/compiler/gcc-arm-none-eabi-4_8-2014q3/bin/../lib/gcc/arm-none-eabi/4.8.4/../../../../arm-none-eabi/lib/armv7e-m/fpu\libc.a(lib_a-__atexit.o)
 .text          0x00000334        0x0 c:/ti/ccsv6/tools/compiler/gcc-arm-none-eabi-4_8-2014q3/bin/../lib/gcc/arm-none-eabi/4.8.4/../../../../arm-none-eabi/lib/armv7e-m/fpu\libnosys.a(_exit.o)
 .text          0x00000334        0x0 c:/ti/ccsv6/tools/compiler/gcc-arm-none-eabi-4_8-2014q3/bin/../lib/gcc/arm-none-eabi/4.8.4/armv7e-m/fpu/crtend.o
 .text          0x00000334        0x0 c:/ti/ccsv6/tools/compiler/gcc-arm-none-eabi-4_8-2014q3/bin/../lib/gcc/arm-none-eabi/4.8.4/armv7e-m/fpu/crtn.o
 *(.text.*)
 .text.ButtonsPoll
                0x00000334       0xf8 ./buttons.o
                0x00000334                ButtonsPoll
 .text.ButtonsInit
                0x0000042c       0x88 ./buttons.o
                0x0000042c                ButtonsInit
 .text.ButtonsHandler
                0x000004b4       0x34 ./buttons.o
                0x000004b4                ButtonsHandler
 .text.main     0x000004e8      0x178 ./main.o
                0x000004e8                main
 .text.RGBInit  0x00000660       0xd0 ./rgb.o
                0x00000660                RGBInit
 .text.RGBEnable
                0x00000730       0x8c ./rgb.o
                0x00000730                RGBEnable
 .text.RGBDisable
                0x000007bc       0x48 ./rgb.o
                0x000007bc                RGBDisable
 .text.RGBSet   0x00000804       0x20 ./rgb.o
                0x00000804                RGBSet
 .text.RGBColorSet
                0x00000824       0xcc ./rgb.o
                0x00000824                RGBColorSet
 .text.RGBIntensitySet
                0x000008f0       0x24 ./rgb.o
                0x000008f0                RGBIntensitySet
 .text.RGBColorGet
                0x00000914       0x3c ./rgb.o
                0x00000914                RGBColorGet
 .text.System_Time
                0x00000950       0x34 ./tarefas.o
                0x00000950                System_Time
 .text.exec     0x00000984       0x2c ./tarefas.o
                0x00000984                exec
 .text.exec2    0x000009b0       0x2c ./tarefas.o
                0x000009b0                exec2
 .text.exec3    0x000009dc       0x7c ./tarefas.o
                0x000009dc                exec3
 .text.Keyboard_Handler
                0x00000a58       0x98 ./tarefas.o
                0x00000a58                Keyboard_Handler
 .text.Keyb_Task
                0x00000af0       0xdc ./tarefas.o
                0x00000af0                Keyb_Task
 .text.Terminal
                0x00000bcc      0x10c ./tarefas.o
                0x00000bcc                Terminal
 .text.UARTIntHandler
                0x00000cd8       0xa0 ./tarefas.o
                0x00000cd8                UARTIntHandler
 .text.UARTPutChar
                0x00000d78       0x58 ./tarefas.o
                0x00000d78                UARTPutChar
 .text.UARTPutString
                0x00000dd0       0x68 ./tarefas.o
                0x00000dd0                UARTPutString
 .text.USB_Task
                0x00000e38       0x94 ./tarefas.o
                0x00000e38                USB_Task
 .text.ResetISR
                0x00000ecc       0x6c ./tm4c123gh6pm_startup_ccs_gcc.o
                0x00000ecc                ResetISR
 .text.NmiSR    0x00000f38        0x8 ./tm4c123gh6pm_startup_ccs_gcc.o
 .text.FaultISR
                0x00000f40        0x8 ./tm4c123gh6pm_startup_ccs_gcc.o
 .text.IntDefaultHandler
                0x00000f48        0x8 ./tm4c123gh6pm_startup_ccs_gcc.o
 .text.ScheduleNextTransmission
                0x00000f50      0x10c ./usblib/usbbuffer.o
 .text.HandleRxAvailable
                0x0000105c      0x134 ./usblib/usbbuffer.o
 .text.HandleDataRemaining
                0x00001190       0x3c ./usblib/usbbuffer.o
 .text.HandleTxComplete
                0x000011cc       0x2c ./usblib/usbbuffer.o
 .text.HandleRequestBuffer
                0x000011f8       0x48 ./usblib/usbbuffer.o
 .text.USBBufferInit
                0x00001240       0x34 ./usblib/usbbuffer.o
                0x00001240                USBBufferInit
 .text.USBBufferZeroLengthPacketInsert
                0x00001274       0x3c ./usblib/usbbuffer.o
                0x00001274                USBBufferZeroLengthPacketInsert
 .text.USBBufferInfoGet
                0x000012b0       0x24 ./usblib/usbbuffer.o
                0x000012b0                USBBufferInfoGet
 .text.USBBufferDataWritten
                0x000012d4       0x2c ./usblib/usbbuffer.o
                0x000012d4                USBBufferDataWritten
 .text.USBBufferDataRemoved
                0x00001300       0x28 ./usblib/usbbuffer.o
                0x00001300                USBBufferDataRemoved
 .text.USBBufferCallbackDataSet
                0x00001328       0x24 ./usblib/usbbuffer.o
                0x00001328                USBBufferCallbackDataSet
 .text.USBBufferWrite
                0x0000134c       0x4c ./usblib/usbbuffer.o
                0x0000134c                USBBufferWrite
 .text.USBBufferFlush
                0x00001398       0x1c ./usblib/usbbuffer.o
                0x00001398                USBBufferFlush
 .text.USBBufferRead
                0x000013b4       0x44 ./usblib/usbbuffer.o
                0x000013b4                USBBufferRead
 .text.USBBufferDataAvailable
                0x000013f8       0x20 ./usblib/usbbuffer.o
                0x000013f8                USBBufferDataAvailable
 .text.USBBufferSpaceAvailable
                0x00001418       0x20 ./usblib/usbbuffer.o
                0x00001418                USBBufferSpaceAvailable
 .text.USBBufferEventCallback
                0x00001438       0xa8 ./usblib/usbbuffer.o
                0x00001438                USBBufferEventCallback
 .text.USBDescGetNum
                0x000014e0       0x60 ./usblib/usbdesc.o
                0x000014e0                USBDescGetNum
 .text.USBDescGet
                0x00001540       0x6c ./usblib/usbdesc.o
                0x00001540                USBDescGet
 .text.USBDescGetNumAlternateInterfaces
                0x000015ac       0x64 ./usblib/usbdesc.o
                0x000015ac                USBDescGetNumAlternateInterfaces
 .text.USBDescGetAlternateInterface
                0x00001610       0x70 ./usblib/usbdesc.o
 .text.USBDescGetInterface
                0x00001680       0x44 ./usblib/usbdesc.o
                0x00001680                USBDescGetInterface
 .text.USBDescGetInterfaceEndpoint
                0x000016c4       0x34 ./usblib/usbdesc.o
                0x000016c4                USBDescGetInterfaceEndpoint
 .text.uDMAUSBChannelStatus
                0x000016f8       0x58 ./usblib/usbdma.o
 .text.iDMAUSBChannelStatus
                0x00001750       0x70 ./usblib/usbdma.o
 .text.uDMAUSBIntStatus
                0x000017c0       0x74 ./usblib/usbdma.o
 .text.iDMAUSBIntStatus
                0x00001834       0x1c ./usblib/usbdma.o
 .text.DMAUSBIntStatusClear
                0x00001850       0x28 ./usblib/usbdma.o
 .text.DMAUSBIntHandler
                0x00001878       0x74 ./usblib/usbdma.o
 .text.uDMAUSBChannelEnable
                0x000018ec       0xf0 ./usblib/usbdma.o
 .text.iDMAUSBChannelEnable
                0x000019dc       0x9c ./usblib/usbdma.o
 .text.uDMAUSBChannelDisable
                0x00001a78       0xb8 ./usblib/usbdma.o
 .text.iDMAUSBChannelDisable
                0x00001b30       0x64 ./usblib/usbdma.o
 .text.uDMAUSBChannelIntEnable
                0x00001b94       0x14 ./usblib/usbdma.o
 .text.iDMAUSBChannelIntEnable
                0x00001ba8       0x20 ./usblib/usbdma.o
 .text.uDMAUSBChannelIntDisable
                0x00001bc8       0x14 ./usblib/usbdma.o
 .text.iDMAUSBChannelIntDisable
                0x00001bdc       0x20 ./usblib/usbdma.o
 .text.uDMAUSBTransfer
                0x00001bfc      0x1bc ./usblib/usbdma.o
 .text.iDMAUSBTransfer
                0x00001db8      0x274 ./usblib/usbdma.o
 .text.uDMAUSBChannelAllocate
                0x0000202c      0x190 ./usblib/usbdma.o
 .text.iDMAUSBChannelAllocate
                0x000021bc      0x100 ./usblib/usbdma.o
 .text.uDMAUSBChannelRelease
                0x000022bc       0xe4 ./usblib/usbdma.o
 .text.iDMAUSBChannelRelease
                0x000023a0       0x80 ./usblib/usbdma.o
 .text.uDMAUSBUnitSizeSet
                0x00002420      0x104 ./usblib/usbdma.o
 .text.iDMAUSBUnitSizeSet
                0x00002524       0x18 ./usblib/usbdma.o
 .text.uDMAUSBArbSizeSet
                0x0000253c       0xe4 ./usblib/usbdma.o
 .text.iDMAUSBArbSizeSet
                0x00002620       0x18 ./usblib/usbdma.o
 .text.DMAUSBStatus
                0x00002638       0x18 ./usblib/usbdma.o
 .text.USBLibDMAAddrGet
                0x00002650       0x24 ./usblib/usbdma.o
                0x00002650                USBLibDMAAddrGet
 .text.USBLibDMASizeGet
                0x00002674       0x24 ./usblib/usbdma.o
                0x00002674                USBLibDMASizeGet
 .text.USBLibDMAInit
                0x00002698      0x1cc ./usblib/usbdma.o
                0x00002698                USBLibDMAInit
 .text.USBOTGSetMode
                0x00002864       0x9c ./usblib/usbmode.o
 .text.USBStackModeSet
                0x00002900       0x48 ./usblib/usbmode.o
                0x00002900                USBStackModeSet
 .text.USB0DualModeIntHandler
                0x00002948       0x68 ./usblib/usbmode.o
                0x00002948                USB0DualModeIntHandler
 .text.USBDualModeInit
                0x000029b0       0x90 ./usblib/usbmode.o
                0x000029b0                USBDualModeInit
 .text.USBDualModeTerm
                0x00002a40       0x50 ./usblib/usbmode.o
                0x00002a40                USBDualModeTerm
 .text.USBOTGModeTerm
                0x00002a90       0x54 ./usblib/usbmode.o
                0x00002a90                USBOTGModeTerm
 .text.USBOTGModeInit
                0x00002ae4       0xf4 ./usblib/usbmode.o
                0x00002ae4                USBOTGModeInit
 .text.USBOTGRemovePower
                0x00002bd8       0x44 ./usblib/usbmode.o
 .text.USBOTGPollRate
                0x00002c1c       0x20 ./usblib/usbmode.o
                0x00002c1c                USBOTGPollRate
 .text.USB0OTGModeIntHandler
                0x00002c3c      0x10c ./usblib/usbmode.o
                0x00002c3c                USB0OTGModeIntHandler
 .text.OTGDeviceDisconnect
                0x00002d48       0x28 ./usblib/usbmode.o
                0x00002d48                OTGDeviceDisconnect
 .text.USBOTGMain
                0x00002d70       0xc8 ./usblib/usbmode.o
                0x00002d70                USBOTGMain
 .text.USBOTGFeatureSet
                0x00002e38       0x50 ./usblib/usbmode.o
                0x00002e38                USBOTGFeatureSet
 .text.UpdateIndexAtomic
                0x00002e88       0x50 ./usblib/usbringbuf.o
 .text.USBRingBufFull
                0x00002ed8       0x40 ./usblib/usbringbuf.o
                0x00002ed8                USBRingBufFull
 .text.USBRingBufEmpty
                0x00002f18       0x30 ./usblib/usbringbuf.o
                0x00002f18                USBRingBufEmpty
 .text.USBRingBufFlush
                0x00002f48       0x30 ./usblib/usbringbuf.o
                0x00002f48                USBRingBufFlush
 .text.USBRingBufUsed
                0x00002f78       0x3c ./usblib/usbringbuf.o
                0x00002f78                USBRingBufUsed
 .text.USBRingBufFree
                0x00002fb4       0x20 ./usblib/usbringbuf.o
                0x00002fb4                USBRingBufFree
 .text.USBRingBufContigUsed
                0x00002fd4       0x38 ./usblib/usbringbuf.o
                0x00002fd4                USBRingBufContigUsed
 .text.USBRingBufContigFree
                0x0000300c       0x48 ./usblib/usbringbuf.o
                0x0000300c                USBRingBufContigFree
 .text.USBRingBufSize
                0x00003054       0x18 ./usblib/usbringbuf.o
                0x00003054                USBRingBufSize
 .text.USBRingBufReadOne
                0x0000306c       0x34 ./usblib/usbringbuf.o
                0x0000306c                USBRingBufReadOne
 .text.USBRingBufRead
                0x000030a0       0x38 ./usblib/usbringbuf.o
                0x000030a0                USBRingBufRead
 .text.USBRingBufAdvanceRead
                0x000030d8       0x38 ./usblib/usbringbuf.o
                0x000030d8                USBRingBufAdvanceRead
 .text.USBRingBufAdvanceWrite
                0x00003110       0x6c ./usblib/usbringbuf.o
                0x00003110                USBRingBufAdvanceWrite
 .text.USBRingBufWriteOne
                0x0000317c       0x34 ./usblib/usbringbuf.o
                0x0000317c                USBRingBufWriteOne
 .text.USBRingBufWrite
                0x000031b0       0x38 ./usblib/usbringbuf.o
                0x000031b0                USBRingBufWrite
 .text.USBRingBufInit
                0x000031e8       0x2c ./usblib/usbringbuf.o
                0x000031e8                USBRingBufInit
 .text.InternalUSBTickInit
                0x00003214       0x58 ./usblib/usbtick.o
                0x00003214                InternalUSBTickInit
 .text.InternalUSBTickReset
                0x0000326c       0x18 ./usblib/usbtick.o
                0x0000326c                InternalUSBTickReset
 .text.InternalUSBRegisterTickHandler
                0x00003284       0x60 ./usblib/usbtick.o
                0x00003284                InternalUSBRegisterTickHandler
 .text.InternalUSBStartOfFrameTick
                0x000032e4       0x5c ./usblib/usbtick.o
                0x000032e4                InternalUSBStartOfFrameTick
 .text.ULPIConfigSet
                0x00003340       0x94 ./usblib/usbulpi.o
                0x00003340                ULPIConfigSet
 .text.ULPIPowerTransceiver
                0x000033d4       0x30 ./usblib/usbulpi.o
                0x000033d4                ULPIPowerTransceiver
 .text.PipeCallbackIN
                0x00003404       0x34 ./usblib/host/usbhaudio.o
 .text.PipeCallbackOUT
                0x00003438       0x34 ./usblib/host/usbhaudio.o
 .text.AudioTerminalGet
                0x0000346c       0x8c ./usblib/host/usbhaudio.o
 .text.AudioControlGet
                0x000034f8       0x64 ./usblib/host/usbhaudio.o
 .text.AudioGetInterface
                0x0000355c      0x2f4 ./usblib/host/usbhaudio.o
 .text.USBAudioOpen
                0x00003850      0x118 ./usblib/host/usbhaudio.o
 .text.USBAudioClose
                0x00003968       0x60 ./usblib/host/usbhaudio.o
 .text.USBHostAudioOpen
                0x000039c8       0x34 ./usblib/host/usbhaudio.o
                0x000039c8                USBHostAudioOpen
 .text.USBHostAudioClose
                0x000039fc       0x1c ./usblib/host/usbhaudio.o
                0x000039fc                USBHostAudioClose
 .text.VolumeSettingGet
                0x00003a18       0x70 ./usblib/host/usbhaudio.o
 .text.USBHostAudioVolumeGet
                0x00003a88       0x24 ./usblib/host/usbhaudio.o
                0x00003a88                USBHostAudioVolumeGet
 .text.USBHostAudioVolumeMaxGet
                0x00003aac       0x24 ./usblib/host/usbhaudio.o
                0x00003aac                USBHostAudioVolumeMaxGet
 .text.USBHostAudioVolumeMinGet
                0x00003ad0       0x24 ./usblib/host/usbhaudio.o
                0x00003ad0                USBHostAudioVolumeMinGet
 .text.USBHostAudioVolumeResGet
                0x00003af4       0x24 ./usblib/host/usbhaudio.o
                0x00003af4                USBHostAudioVolumeResGet
 .text.USBHostAudioVolumeSet
                0x00003b18       0x58 ./usblib/host/usbhaudio.o
                0x00003b18                USBHostAudioVolumeSet
 .text.USBHostAudioFormatGet
                0x00003b70       0x3c ./usblib/host/usbhaudio.o
                0x00003b70                USBHostAudioFormatGet
 .text.USBHostAudioFormatSet
                0x00003bac       0x74 ./usblib/host/usbhaudio.o
                0x00003bac                USBHostAudioFormatSet
 .text.USBHostAudioPlay
                0x00003c20       0x98 ./usblib/host/usbhaudio.o
                0x00003c20                USBHostAudioPlay
 .text.USBHostAudioRecord
                0x00003cb8       0x98 ./usblib/host/usbhaudio.o
                0x00003cb8                USBHostAudioRecord
 .text.USBHostAudioLPMSleep
                0x00003d50       0x1c ./usblib/host/usbhaudio.o
                0x00003d50                USBHostAudioLPMSleep
 .text.USBHostAudioLPMStatus
                0x00003d6c       0x1c ./usblib/host/usbhaudio.o
                0x00003d6c                USBHostAudioLPMStatus
 .text.USBHHIDOpen
                0x00003d88       0x94 ./usblib/host/usbhhid.o
                0x00003d88                USBHHIDOpen
 .text.USBHHIDClose
                0x00003e1c       0x20 ./usblib/host/usbhhid.o
                0x00003e1c                USBHHIDClose
 .text.HIDIntINCallback
                0x00003e3c       0x84 ./usblib/host/usbhhid.o
 .text.HIDDriverOpen
                0x00003ec0      0x16c ./usblib/host/usbhhid.o
 .text.HIDDriverClose
                0x0000402c       0x48 ./usblib/host/usbhhid.o
 .text.USBHHIDSetIdle
                0x00004074       0x58 ./usblib/host/usbhhid.o
                0x00004074                USBHHIDSetIdle
 .text.USBHHIDGetReportDescriptor
                0x000040cc       0x54 ./usblib/host/usbhhid.o
                0x000040cc                USBHHIDGetReportDescriptor
 .text.USBHHIDSetProtocol
                0x00004120       0x58 ./usblib/host/usbhhid.o
                0x00004120                USBHHIDSetProtocol
 .text.USBHHIDGetReport
                0x00004178       0x28 ./usblib/host/usbhhid.o
                0x00004178                USBHHIDGetReport
 .text.USBHHIDSetReport
                0x000041a0       0x54 ./usblib/host/usbhhid.o
                0x000041a0                USBHHIDSetReport
 .text.USBHHIDLPMSleep
                0x000041f4       0x1c ./usblib/host/usbhhid.o
                0x000041f4                USBHHIDLPMSleep
 .text.USBHHIDLPMStatus
                0x00004210       0x1c ./usblib/host/usbhhid.o
                0x00004210                USBHHIDLPMStatus
 .text.USBHKeyboardOpen
                0x0000422c       0x34 ./usblib/host/usbhhidkeyboard.o
                0x0000422c                USBHKeyboardOpen
 .text.USBHKeyboardClose
                0x00004260       0x24 ./usblib/host/usbhhidkeyboard.o
                0x00004260                USBHKeyboardClose
 .text.USBHKeyboardUsageToChar
                0x00004284       0xd0 ./usblib/host/usbhhidkeyboard.o
                0x00004284                USBHKeyboardUsageToChar
 .text.USBHKeyboardModifierSet
                0x00004354       0x30 ./usblib/host/usbhhidkeyboard.o
                0x00004354                USBHKeyboardModifierSet
 .text.USBHKeyboardInit
                0x00004384       0x58 ./usblib/host/usbhhidkeyboard.o
                0x00004384                USBHKeyboardInit
 .text.USBHKeyboardPollRateSet
                0x000043dc       0x28 ./usblib/host/usbhhidkeyboard.o
                0x000043dc                USBHKeyboardPollRateSet
 .text.UpdateKeyboardState
                0x00004404      0x160 ./usblib/host/usbhhidkeyboard.o
 .text.USBHKeyboardCallback
                0x00004564       0x80 ./usblib/host/usbhhidkeyboard.o
 .text.USBHKeyboardLPMSleep
                0x000045e4       0x1c ./usblib/host/usbhhidkeyboard.o
                0x000045e4                USBHKeyboardLPMSleep
 .text.USBHKeyboardLPMStatus
                0x00004600       0x1c ./usblib/host/usbhhidkeyboard.o
                0x00004600                USBHKeyboardLPMStatus
 .text.USBHMouseOpen
                0x0000461c       0x40 ./usblib/host/usbhhidmouse.o
                0x0000461c                USBHMouseOpen
 .text.USBHMouseClose
                0x0000465c       0x24 ./usblib/host/usbhhidmouse.o
                0x0000465c                USBHMouseClose
 .text.USBHMouseInit
                0x00004680       0x44 ./usblib/host/usbhhidmouse.o
                0x00004680                USBHMouseInit
 .text.UpdateMouseState
                0x000046c4       0xc4 ./usblib/host/usbhhidmouse.o
 .text.USBHMouseCallback
                0x00004788       0x80 ./usblib/host/usbhhidmouse.o
 .text.USBHMouseLPMSleep
                0x00004808       0x1c ./usblib/host/usbhhidmouse.o
                0x00004808                USBHMouseLPMSleep
 .text.USBHMouseLPMStatus
                0x00004824       0x1c ./usblib/host/usbhhidmouse.o
                0x00004824                USBHMouseLPMStatus
 .text.USBHubPortSpeedSet
                0x00004840       0x30 ./usblib/host/usbhhub.o
 .text.HubSetPortFeature
                0x00004870       0x50 ./usblib/host/usbhhub.o
 .text.HubClearPortFeature
                0x000048c0       0x50 ./usblib/host/usbhhub.o
 .text.HubGetPortStatus
                0x00004910       0x74 ./usblib/host/usbhhub.o
 .text.HubIntINCallback
                0x00004984       0x70 ./usblib/host/usbhhub.o
 .text.GetHubDescriptor
                0x000049f4       0x5c ./usblib/host/usbhhub.o
 .text.HubDriverOpen
                0x00004a50      0x1dc ./usblib/host/usbhhub.o
 .text.HubDriverClose
                0x00004c2c      0x104 ./usblib/host/usbhhub.o
 .text.HubDriverReset
                0x00004d30       0x94 ./usblib/host/usbhhub.o
 .text.HubDriverDeviceReset
                0x00004dc4       0x44 ./usblib/host/usbhhub.o
 .text.HubDriverDeviceConnect
                0x00004e08       0x58 ./usblib/host/usbhhub.o
 .text.HubDriverDeviceDisconnect
                0x00004e60       0xf0 ./usblib/host/usbhhub.o
 .text.USBHHubMain
                0x00004f50      0x2d8 ./usblib/host/usbhhub.o
                0x00004f50                USBHHubMain
 .text.USBHHubEnumerationComplete
                0x00005228       0x38 ./usblib/host/usbhhub.o
                0x00005228                USBHHubEnumerationComplete
 .text.USBHHubEnumerationError
                0x00005260       0x38 ./usblib/host/usbhhub.o
                0x00005260                USBHHubEnumerationError
 .text.USBHHubOpen
                0x00005298       0x30 ./usblib/host/usbhhub.o
                0x00005298                USBHHubOpen
 .text.USBHHubClose
                0x000052c8       0x20 ./usblib/host/usbhhub.o
                0x000052c8                USBHHubClose
 .text.USBHHubInit
                0x000052e8       0x58 ./usblib/host/usbhhub.o
                0x000052e8                USBHHubInit
 .text.USBHHubLPMSleep
                0x00005340       0x1c ./usblib/host/usbhhub.o
                0x00005340                USBHHubLPMSleep
 .text.USBHHubLPMStatus
                0x0000535c       0x1c ./usblib/host/usbhhub.o
                0x0000535c                USBHHubLPMStatus
 .text.USBHMSCOpen
                0x00005378      0x110 ./usblib/host/usbhmsc.o
 .text.USBHMSCClose
                0x00005488       0x5c ./usblib/host/usbhmsc.o
 .text.USBHMSCGetMaxLUN
                0x000054e4       0x4c ./usblib/host/usbhmsc.o
 .text.USBHMSCDriveReady
                0x00005530      0x180 ./usblib/host/usbhmsc.o
                0x00005530                USBHMSCDriveReady
 .text.USBHMSCDriveOpen
                0x000056b0       0x34 ./usblib/host/usbhmsc.o
                0x000056b0                USBHMSCDriveOpen
 .text.USBHMSCDriveClose
                0x000056e4       0x1c ./usblib/host/usbhmsc.o
                0x000056e4                USBHMSCDriveClose
 .text.USBHMSCBlockRead
                0x00005700       0x5c ./usblib/host/usbhmsc.o
                0x00005700                USBHMSCBlockRead
 .text.USBHMSCBlockWrite
                0x0000575c       0x5c ./usblib/host/usbhmsc.o
                0x0000575c                USBHMSCBlockWrite
 .text.USBHMSCLPMSleep
                0x000057b8       0x1c ./usblib/host/usbhmsc.o
                0x000057b8                USBHMSCLPMSleep
 .text.USBHMSCLPMStatus
                0x000057d4       0x1c ./usblib/host/usbhmsc.o
                0x000057d4                USBHMSCLPMStatus
 .text.ConfigDescAlloc
                0x000057f0       0xc4 ./usblib/host/usbhostenum.o
                0x000057f0                ConfigDescAlloc
 .text.ConfigDescFree
                0x000058b4       0x84 ./usblib/host/usbhostenum.o
                0x000058b4                ConfigDescFree
 .text.HCDInstanceToDevIndex
                0x00005938       0x28 ./usblib/host/usbhostenum.o
 .text.GetEventFlag
                0x00005960       0xc0 ./usblib/host/usbhostenum.o
 .text.USBHCDEventEnable
                0x00005a20       0x40 ./usblib/host/usbhostenum.o
                0x00005a20                USBHCDEventEnable
 .text.USBHCDEventDisable
                0x00005a60       0x44 ./usblib/host/usbhostenum.o
                0x00005a60                USBHCDEventDisable
 .text.SendUnknownConnect
                0x00005aa4       0x28 ./usblib/host/usbhostenum.o
 .text.FIFOFree
                0x00005acc       0x60 ./usblib/host/usbhostenum.o
 .text.FIFOAlloc
                0x00005b2c      0x114 ./usblib/host/usbhostenum.o
 .text.USBHCDPipeTransferSizeGet
                0x00005c40       0x30 ./usblib/host/usbhostenum.o
                0x00005c40                USBHCDPipeTransferSizeGet
 .text.USBHCDPipeAllocSize
                0x00005c70      0x398 ./usblib/host/usbhostenum.o
                0x00005c70                USBHCDPipeAllocSize
 .text.USBHCDPipeAlloc
                0x00006008       0x28 ./usblib/host/usbhostenum.o
                0x00006008                USBHCDPipeAlloc
 .text.USBHCDPipeConfig
                0x00006030      0x200 ./usblib/host/usbhostenum.o
                0x00006030                USBHCDPipeConfig
 .text.USBHCDPipeStatus
                0x00006230       0x18 ./usblib/host/usbhostenum.o
                0x00006230                USBHCDPipeStatus
 .text.USBHCDPipeWrite
                0x00006248      0x254 ./usblib/host/usbhostenum.o
                0x00006248                USBHCDPipeWrite
 .text.USBHCDPipeSchedule
                0x0000649c      0x170 ./usblib/host/usbhostenum.o
                0x0000649c                USBHCDPipeSchedule
 .text.USBHCDPipeReadNonBlocking
                0x0000660c       0x64 ./usblib/host/usbhostenum.o
                0x0000660c                USBHCDPipeReadNonBlocking
 .text.USBHCDPipeDataAck
                0x00006670       0x40 ./usblib/host/usbhostenum.o
                0x00006670                USBHCDPipeDataAck
 .text.USBHCDPipeRead
                0x000066b0      0x2a8 ./usblib/host/usbhostenum.o
                0x000066b0                USBHCDPipeRead
 .text.USBHCDPipeFree
                0x00006958      0x1f8 ./usblib/host/usbhostenum.o
                0x00006958                USBHCDPipeFree
 .text.USBHCDInitInternal
                0x00006b50      0x2bc ./usblib/host/usbhostenum.o
 .text.USBHCDPowerConfigInit
                0x00006e0c       0x20 ./usblib/host/usbhostenum.o
                0x00006e0c                USBHCDPowerConfigInit
 .text.USBHCDPowerConfigGet
                0x00006e2c       0x1c ./usblib/host/usbhostenum.o
                0x00006e2c                USBHCDPowerConfigGet
 .text.USBHCDPowerConfigSet
                0x00006e48       0x9c ./usblib/host/usbhostenum.o
                0x00006e48                USBHCDPowerConfigSet
 .text.USBHCDPowerAutomatic
                0x00006ee4       0x2c ./usblib/host/usbhostenum.o
                0x00006ee4                USBHCDPowerAutomatic
 .text.USBHCDInit
                0x00006f10      0x158 ./usblib/host/usbhostenum.o
                0x00006f10                USBHCDInit
 .text.USBHCDRegisterDrivers
                0x00007068       0x2c ./usblib/host/usbhostenum.o
                0x00007068                USBHCDRegisterDrivers
 .text.USBHCDTerm
                0x00007094       0xf4 ./usblib/host/usbhostenum.o
                0x00007094                USBHCDTerm
 .text.USBHCDReset
                0x00007188       0x70 ./usblib/host/usbhostenum.o
                0x00007188                USBHCDReset
 .text.USBHCDSuspend
                0x000071f8       0x24 ./usblib/host/usbhostenum.o
                0x000071f8                USBHCDSuspend
 .text.USBHCDResume
                0x0000721c       0x50 ./usblib/host/usbhostenum.o
                0x0000721c                USBHCDResume
 .text.USBHCDGetConfigDescriptor
                0x0000726c       0xb8 ./usblib/host/usbhostenum.o
 .text.USBHCDGetDeviceDescriptor
                0x00007324       0x7c ./usblib/host/usbhostenum.o
 .text.USBHCDStringDescriptorGet
                0x000073a0       0x5c ./usblib/host/usbhostenum.o
                0x000073a0                USBHCDStringDescriptorGet
 .text.USBHCDSetAddress
                0x000073fc       0x6c ./usblib/host/usbhostenum.o
                0x000073fc                USBHCDSetAddress
 .text.USBHCDClearFeature
                0x00007468       0xec ./usblib/host/usbhostenum.o
 .text.USBHCDSetConfig
                0x00007554       0x44 ./usblib/host/usbhostenum.o
                0x00007554                USBHCDSetConfig
 .text.USBHCDSetInterface
                0x00007598       0x48 ./usblib/host/usbhostenum.o
                0x00007598                USBHCDSetInterface
 .text.USBHostCheckPipes
                0x000075e0      0x114 ./usblib/host/usbhostenum.o
                0x000075e0                USBHostCheckPipes
 .text.USBHostIntHandlerInternal
                0x000076f4      0xa50 ./usblib/host/usbhostenum.o
                0x000076f4                USBHostIntHandlerInternal
 .text.USB0HostIntHandler
                0x00008144       0x2c ./usblib/host/usbhostenum.o
                0x00008144                USB0HostIntHandler
 .text.USBHCDOpenDriver
                0x00008170      0x100 ./usblib/host/usbhostenum.o
 .text.InternalUSBHCDSendEvent
                0x00008270       0x60 ./usblib/host/usbhostenum.o
                0x00008270                InternalUSBHCDSendEvent
 .text.USBHCDDeviceDisconnected
                0x000082d0      0x118 ./usblib/host/usbhostenum.o
 .text.USBHCDMain
                0x000083e8      0x1a4 ./usblib/host/usbhostenum.o
                0x000083e8                USBHCDMain
 .text.ProcessUSBDeviceStateMachine
                0x0000858c      0x3b4 ./usblib/host/usbhostenum.o
 .text.USBHCDControlTransfer
                0x00008940      0x190 ./usblib/host/usbhostenum.o
                0x00008940                USBHCDControlTransfer
 .text.USBHCDHubDeviceConnected
                0x00008ad0       0xe0 ./usblib/host/usbhostenum.o
                0x00008ad0                USBHCDHubDeviceConnected
 .text.USBHCDHubDeviceDisconnected
                0x00008bb0       0x28 ./usblib/host/usbhostenum.o
                0x00008bb0                USBHCDHubDeviceDisconnected
 .text.USBHCDEnumHandler
                0x00008bd8      0x1a8 ./usblib/host/usbhostenum.o
 .text.USBHCDEP0StateTx
                0x00008d80       0x94 ./usblib/host/usbhostenum.o
 .text.USBHCDDevHubPort
                0x00008e14       0x3c ./usblib/host/usbhostenum.o
                0x00008e14                USBHCDDevHubPort
 .text.USBHCDDevAddress
                0x00008e50       0x40 ./usblib/host/usbhostenum.o
                0x00008e50                USBHCDDevAddress
 .text.USBHCDDevClass
                0x00008e90       0x68 ./usblib/host/usbhostenum.o
                0x00008e90                USBHCDDevClass
 .text.USBHCDDevSubClass
                0x00008ef8       0x68 ./usblib/host/usbhostenum.o
                0x00008ef8                USBHCDDevSubClass
 .text.USBHCDDevProtocol
                0x00008f60       0x68 ./usblib/host/usbhostenum.o
                0x00008f60                USBHCDDevProtocol
 .text.USBHCDFeatureSet
                0x00008fc8      0x108 ./usblib/host/usbhostenum.o
                0x00008fc8                USBHCDFeatureSet
 .text.USBHCDLPMStatus
                0x000090d0       0x3c ./usblib/host/usbhostenum.o
                0x000090d0                USBHCDLPMStatus
 .text.USBHCDLPMSleep
                0x0000910c       0x9c ./usblib/host/usbhostenum.o
                0x0000910c                USBHCDLPMSleep
 .text.USBHCDLPMResume
                0x000091a8       0x18 ./usblib/host/usbhostenum.o
                0x000091a8                USBHCDLPMResume
 .text.USBHSCSISendCommand
                0x000091c0       0xfc ./usblib/host/usbhscsi.o
 .text.USBHSCSIInquiry
                0x000092bc       0x6c ./usblib/host/usbhscsi.o
                0x000092bc                USBHSCSIInquiry
 .text.USBHSCSIReadCapacity
                0x00009328       0x6c ./usblib/host/usbhscsi.o
                0x00009328                USBHSCSIReadCapacity
 .text.USBHSCSIReadCapacities
                0x00009394       0x64 ./usblib/host/usbhscsi.o
                0x00009394                USBHSCSIReadCapacities
 .text.USBHSCSIModeSense6
                0x000093f8       0x6c ./usblib/host/usbhscsi.o
                0x000093f8                USBHSCSIModeSense6
 .text.USBHSCSITestUnitReady
                0x00009464       0x60 ./usblib/host/usbhscsi.o
                0x00009464                USBHSCSITestUnitReady
 .text.USBHSCSIRequestSense
                0x000094c4       0x64 ./usblib/host/usbhscsi.o
                0x000094c4                USBHSCSIRequestSense
 .text.USBHSCSIRead10
                0x00009528       0x9c ./usblib/host/usbhscsi.o
                0x00009528                USBHSCSIRead10
 .text.USBHSCSIWrite10
                0x000095c4       0xa0 ./usblib/host/usbhscsi.o
                0x000095c4                USBHSCSIWrite10
 .text.DataReceived
                0x00009664       0x84 ./usblib/device/usbdaudio.o
 .text.HandleEndpoints
                0x000096e8       0xfc ./usblib/device/usbdaudio.o
 .text.HandleDevice
                0x000097e4      0x17c ./usblib/device/usbdaudio.o
 .text.HandleDisconnect
                0x00009960       0x20 ./usblib/device/usbdaudio.o
 .text.InterfaceChange
                0x00009980       0x54 ./usblib/device/usbdaudio.o
 .text.ConfigChangeHandler
                0x000099d4       0x2c ./usblib/device/usbdaudio.o
 .text.USBDAudioInit
                0x00009a00       0xc0 ./usblib/device/usbdaudio.o
                0x00009a00                USBDAudioInit
 .text.USBDAudioCompositeInit
                0x00009ac0       0xd0 ./usblib/device/usbdaudio.o
                0x00009ac0                USBDAudioCompositeInit
 .text.USBDAudioTerm
                0x00009b90       0x14 ./usblib/device/usbdaudio.o
                0x00009b90                USBDAudioTerm
 .text.HandleRequests
                0x00009ba4      0x23c ./usblib/device/usbdaudio.o
 .text.USBAudioBufferOut
                0x00009de0       0x40 ./usblib/device/usbdaudio.o
                0x00009de0                USBAudioBufferOut
 .text.SetDeferredOpFlag
                0x00009e20       0x3c ./usblib/device/usbdbulk.o
 .text.ProcessDataFromHost
                0x00009e5c       0xb8 ./usblib/device/usbdbulk.o
 .text.ProcessDataToHost
                0x00009f14       0x74 ./usblib/device/usbdbulk.o
 .text.HandleEndpoints
                0x00009f88       0x60 ./usblib/device/usbdbulk.o
 .text.HandleConfigChange
                0x00009fe8       0x48 ./usblib/device/usbdbulk.o
 .text.HandleDevice
                0x0000a030       0xe8 ./usblib/device/usbdbulk.o
 .text.HandleDisconnect
                0x0000a118       0x3c ./usblib/device/usbdbulk.o
 .text.HandleSuspend
                0x0000a154       0x24 ./usblib/device/usbdbulk.o
 .text.HandleResume
                0x0000a178       0x24 ./usblib/device/usbdbulk.o
 .text.BulkTickHandler
                0x0000a19c       0x5c ./usblib/device/usbdbulk.o
 .text.USBDBulkInit
                0x0000a1f8       0x6c ./usblib/device/usbdbulk.o
                0x0000a1f8                USBDBulkInit
 .text.USBDBulkCompositeInit
                0x0000a264       0xc0 ./usblib/device/usbdbulk.o
                0x0000a264                USBDBulkCompositeInit
 .text.USBDBulkTerm
                0x0000a324       0x24 ./usblib/device/usbdbulk.o
                0x0000a324                USBDBulkTerm
 .text.USBDBulkSetRxCBData
                0x0000a348       0x24 ./usblib/device/usbdbulk.o
                0x0000a348                USBDBulkSetRxCBData
 .text.USBDBulkSetTxCBData
                0x0000a36c       0x24 ./usblib/device/usbdbulk.o
                0x0000a36c                USBDBulkSetTxCBData
 .text.USBDBulkPacketWrite
                0x0000a390       0xa0 ./usblib/device/usbdbulk.o
                0x0000a390                USBDBulkPacketWrite
 .text.USBDBulkPacketRead
                0x0000a430       0xe0 ./usblib/device/usbdbulk.o
                0x0000a430                USBDBulkPacketRead
 .text.USBDBulkTxPacketAvailable
                0x0000a510       0x2c ./usblib/device/usbdbulk.o
                0x0000a510                USBDBulkTxPacketAvailable
 .text.USBDBulkRxPacketAvailable
                0x0000a53c       0x60 ./usblib/device/usbdbulk.o
                0x0000a53c                USBDBulkRxPacketAvailable
 .text.USBDBulkPowerStatusSet
                0x0000a59c       0x1c ./usblib/device/usbdbulk.o
                0x0000a59c                USBDBulkPowerStatusSet
 .text.USBDBulkRemoteWakeupRequest
                0x0000a5b8       0x18 ./usblib/device/usbdbulk.o
                0x0000a5b8                USBDBulkRemoteWakeupRequest
 .text.SetDeferredOpFlag
                0x0000a5d0       0x3c ./usblib/device/usbdcdc.o
 .text.DeviceConsumedAllData
                0x0000a60c       0x30 ./usblib/device/usbdcdc.o
 .text.SendBreak
                0x0000a63c       0x5c ./usblib/device/usbdcdc.o
 .text.SendLineCodingChange
                0x0000a698       0x38 ./usblib/device/usbdcdc.o
 .text.SendLineStateChange
                0x0000a6d0       0x3c ./usblib/device/usbdcdc.o
 .text.CheckAndSendBreak
                0x0000a70c       0x3c ./usblib/device/usbdcdc.o
 .text.CheckAndSendLineCodingChange
                0x0000a748       0x28 ./usblib/device/usbdcdc.o
 .text.CheckAndSendLineStateChange
                0x0000a770       0x28 ./usblib/device/usbdcdc.o
 .text.SendSerialState
                0x0000a798       0xec ./usblib/device/usbdcdc.o
 .text.ProcessDataFromHost
                0x0000a884       0xe4 ./usblib/device/usbdcdc.o
                0x0000a884                ProcessDataFromHost
 .text.ProcessNotificationToHost
                0x0000a968       0x78 ./usblib/device/usbdcdc.o
                0x0000a968                ProcessNotificationToHost
 .text.ProcessDataToHost
                0x0000a9e0       0xbc ./usblib/device/usbdcdc.o
                0x0000a9e0                ProcessDataToHost
 .text.HandleEndpoints
                0x0000aa9c       0x84 ./usblib/device/usbdcdc.o
 .text.HandleConfigChange
                0x0000ab20       0x60 ./usblib/device/usbdcdc.o
 .text.HandleEP0Data
                0x0000ab80       0x84 ./usblib/device/usbdcdc.o
 .text.HandleDevice
                0x0000ac04      0x15c ./usblib/device/usbdcdc.o
 .text.HandleRequests
                0x0000ad60      0x2dc ./usblib/device/usbdcdc.o
 .text.HandleDisconnect
                0x0000b03c       0x40 ./usblib/device/usbdcdc.o
 .text.HandleSuspend
                0x0000b07c       0x24 ./usblib/device/usbdcdc.o
 .text.HandleResume
                0x0000b0a0       0x24 ./usblib/device/usbdcdc.o
 .text.CDCTickHandler
                0x0000b0c4      0x110 ./usblib/device/usbdcdc.o
 .text.USBDCDCCompositeInit
                0x0000b1d4      0x118 ./usblib/device/usbdcdc.o
                0x0000b1d4                USBDCDCCompositeInit
 .text.USBDCDCInit
                0x0000b2ec       0x84 ./usblib/device/usbdcdc.o
                0x0000b2ec                USBDCDCInit
 .text.USBDCDCTerm
                0x0000b370       0x24 ./usblib/device/usbdcdc.o
                0x0000b370                USBDCDCTerm
 .text.USBDCDCSetControlCBData
                0x0000b394       0x28 ./usblib/device/usbdcdc.o
                0x0000b394                USBDCDCSetControlCBData
 .text.USBDCDCSetRxCBData
                0x0000b3bc       0x28 ./usblib/device/usbdcdc.o
                0x0000b3bc                USBDCDCSetRxCBData
 .text.USBDCDCSetTxCBData
                0x0000b3e4       0x28 ./usblib/device/usbdcdc.o
                0x0000b3e4                USBDCDCSetTxCBData
 .text.USBDCDCPacketWrite
                0x0000b40c       0xa4 ./usblib/device/usbdcdc.o
                0x0000b40c                USBDCDCPacketWrite
 .text.USBDCDCPacketRead
                0x0000b4b0      0x108 ./usblib/device/usbdcdc.o
                0x0000b4b0                USBDCDCPacketRead
 .text.USBDCDCTxPacketAvailable
                0x0000b5b8       0x2c ./usblib/device/usbdcdc.o
                0x0000b5b8                USBDCDCTxPacketAvailable
 .text.USBDCDCRxPacketAvailable
                0x0000b5e4       0x7c ./usblib/device/usbdcdc.o
                0x0000b5e4                USBDCDCRxPacketAvailable
 .text.USBDCDCSerialStateChange
                0x0000b660       0x7c ./usblib/device/usbdcdc.o
                0x0000b660                USBDCDCSerialStateChange
 .text.USBDCDCPowerStatusSet
                0x0000b6dc       0x1c ./usblib/device/usbdcdc.o
                0x0000b6dc                USBDCDCPowerStatusSet
 .text.USBDCDCRemoteWakeupRequest
                0x0000b6f8       0x18 ./usblib/device/usbdcdc.o
                0x0000b6f8                USBDCDCRemoteWakeupRequest
 .text.NextConfigDescGet
                0x0000b710       0x7c ./usblib/device/usbdcdesc.o
 .text.ConfigAlternateInterfaceGet
                0x0000b78c       0x70 ./usblib/device/usbdcdesc.o
 .text.USBDCDConfigDescGetSize
                0x0000b7fc       0x48 ./usblib/device/usbdcdesc.o
                0x0000b7fc                USBDCDConfigDescGetSize
 .text.USBDCDConfigDescGetNum
                0x0000b844       0x60 ./usblib/device/usbdcdesc.o
                0x0000b844                USBDCDConfigDescGetNum
 .text.USBDCDConfigDescGet
                0x0000b8a4       0xa8 ./usblib/device/usbdcdesc.o
                0x0000b8a4                USBDCDConfigDescGet
 .text.USBDCDConfigGetNumAlternateInterfaces
                0x0000b94c       0x58 ./usblib/device/usbdcdesc.o
                0x0000b94c                USBDCDConfigGetNumAlternateInterfaces
 .text.USBDCDConfigGetInterface
                0x0000b9a4       0x40 ./usblib/device/usbdcdesc.o
                0x0000b9a4                USBDCDConfigGetInterface
 .text.USBDCDConfigGetInterfaceEndpoint
                0x0000b9e4       0x78 ./usblib/device/usbdcdesc.o
                0x0000b9e4                USBDCDConfigGetInterfaceEndpoint
 .text.InterfaceToIndex
                0x0000ba5c       0x58 ./usblib/device/usbdcomp.o
 .text.EndpointToIndex
                0x0000bab4       0x70 ./usblib/device/usbdcomp.o
 .text.GetDescriptor
                0x0000bb24       0xc8 ./usblib/device/usbdcomp.o
 .text.SuspendHandler
                0x0000bbec       0x7c ./usblib/device/usbdcomp.o
 .text.ResumeHandler
                0x0000bc68       0x7c ./usblib/device/usbdcomp.o
 .text.ResetHandler
                0x0000bce4       0x7c ./usblib/device/usbdcomp.o
 .text.DataSent
                0x0000bd60       0x60 ./usblib/device/usbdcomp.o
 .text.DataReceived
                0x0000bdc0       0x60 ./usblib/device/usbdcomp.o
 .text.HandleEndpoints
                0x0000be20       0x68 ./usblib/device/usbdcomp.o
 .text.HandleDevice
                0x0000be88       0xb4 ./usblib/device/usbdcomp.o
 .text.HandleDisconnect
                0x0000bf3c       0x78 ./usblib/device/usbdcomp.o
 .text.InterfaceChange
                0x0000bfb4       0x74 ./usblib/device/usbdcomp.o
 .text.ConfigChangeHandler
                0x0000c028       0x68 ./usblib/device/usbdcomp.o
 .text.HandleRequests
                0x0000c090       0xc8 ./usblib/device/usbdcomp.o
 .text.CompositeIfaceChange
                0x0000c158       0x40 ./usblib/device/usbdcomp.o
 .text.CompositeEPChange
                0x0000c198       0x48 ./usblib/device/usbdcomp.o
 .text.BuildCompositeDescriptor
                0x0000c1e0      0x348 ./usblib/device/usbdcomp.o
                0x0000c1e0                BuildCompositeDescriptor
 .text.USBDCompositeInit
                0x0000c528      0x164 ./usblib/device/usbdcomp.o
                0x0000c528                USBDCompositeInit
 .text.USBDCompositeTerm
                0x0000c68c       0x14 ./usblib/device/usbdcomp.o
                0x0000c68c                USBDCompositeTerm
 .text.GetEndpointFIFOSize
                0x0000c6a0       0x4c ./usblib/device/usbdconfig.o
 .text.GetEPDescriptorType
                0x0000c6ec       0xa4 ./usblib/device/usbdconfig.o
 .text.USBDeviceConfig
                0x0000c790      0x24c ./usblib/device/usbdconfig.o
                0x0000c790                USBDeviceConfig
 .text.USBDeviceConfigAlternate
                0x0000c9dc       0xcc ./usblib/device/usbdconfig.o
                0x0000c9dc                USBDeviceConfigAlternate
 .text.HandleDevice
                0x0000caa8       0x34 ./usblib/device/usbddfu-rt.o
 .text.HandleGetDescriptor
                0x0000cadc       0x60 ./usblib/device/usbddfu-rt.o
 .text.HandleRequest
                0x0000cb3c       0x50 ./usblib/device/usbddfu-rt.o
 .text.USBDDFUCompositeInit
                0x0000cb8c       0x7c ./usblib/device/usbddfu-rt.o
                0x0000cb8c                USBDDFUCompositeInit
 .text.USBDDFUCompositeTerm
                0x0000cc08       0x20 ./usblib/device/usbddfu-rt.o
                0x0000cc08                USBDDFUCompositeTerm
 .text.USBDDFUUpdateBegin
                0x0000cc28       0xac ./usblib/device/usbddfu-rt.o
                0x0000cc28                USBDDFUUpdateBegin
 .text.USBDCDDeviceInfoInit
                0x0000ccd4       0x70 ./usblib/device/usbdenum.o
                0x0000ccd4                USBDCDDeviceInfoInit
 .text.USBDCDInit
                0x0000cd44      0x1f4 ./usblib/device/usbdenum.o
                0x0000cd44                USBDCDInit
 .text.USBDCDTerm
                0x0000cf38       0xa0 ./usblib/device/usbdenum.o
                0x0000cf38                USBDCDTerm
 .text.USBDCDRequestDataEP0
                0x0000cfd8       0x34 ./usblib/device/usbdenum.o
                0x0000cfd8                USBDCDRequestDataEP0
 .text.USBDCDSendDataEP0
                0x0000d00c       0x30 ./usblib/device/usbdenum.o
                0x0000d00c                USBDCDSendDataEP0
 .text.USBDCDSetDefaultConfiguration
                0x0000d03c       0x20 ./usblib/device/usbdenum.o
                0x0000d03c                USBDCDSetDefaultConfiguration
 .text.USBDCDStallEP0
                0x0000d05c       0x30 ./usblib/device/usbdenum.o
                0x0000d05c                USBDCDStallEP0
 .text.USBDCDPowerStatusSet
                0x0000d08c       0x48 ./usblib/device/usbdenum.o
                0x0000d08c                USBDCDPowerStatusSet
 .text.USBDCDFeatureSet
                0x0000d0d4       0xf8 ./usblib/device/usbdenum.o
                0x0000d0d4                USBDCDFeatureSet
 .text.USBDCDRemoteWakeLPM
                0x0000d1cc       0x2c ./usblib/device/usbdenum.o
                0x0000d1cc                USBDCDRemoteWakeLPM
 .text.USBDCDRemoteWakeupRequest
                0x0000d1f8       0x60 ./usblib/device/usbdenum.o
                0x0000d1f8                USBDCDRemoteWakeupRequest
 .text.USBDeviceResumeTickHandler
                0x0000d258       0x80 ./usblib/device/usbdenum.o
                0x0000d258                USBDeviceResumeTickHandler
 .text.USBDReadAndDispatchRequest
                0x0000d2d8       0xb0 ./usblib/device/usbdenum.o
 .text.USBDeviceEnumHandler
                0x0000d388      0x18c ./usblib/device/usbdenum.o
                0x0000d388                USBDeviceEnumHandler
 .text.USBDeviceEnumResetHandler
                0x0000d514       0x74 ./usblib/device/usbdenum.o
                0x0000d514                USBDeviceEnumResetHandler
 .text.USBDGetStatus
                0x0000d588       0xbc ./usblib/device/usbdenum.o
 .text.USBDClearFeature
                0x0000d644      0x108 ./usblib/device/usbdenum.o
 .text.USBDSetFeature
                0x0000d74c       0xd8 ./usblib/device/usbdenum.o
 .text.USBDSetAddress
                0x0000d824       0x40 ./usblib/device/usbdenum.o
 .text.USBDGetDescriptor
                0x0000d864      0x190 ./usblib/device/usbdenum.o
 .text.USBDStringIndexFromRequest
                0x0000d9f4       0xc0 ./usblib/device/usbdenum.o
 .text.USBDSetDescriptor
                0x0000dab4       0x30 ./usblib/device/usbdenum.o
 .text.USBDGetConfiguration
                0x0000dae4       0x58 ./usblib/device/usbdenum.o
 .text.USBDSetConfiguration
                0x0000db3c      0x108 ./usblib/device/usbdenum.o
 .text.USBDGetInterface
                0x0000dc44       0x70 ./usblib/device/usbdenum.o
 .text.USBDSetInterface
                0x0000dcb4      0x100 ./usblib/device/usbdenum.o
 .text.USBDSyncFrame
                0x0000ddb4       0x30 ./usblib/device/usbdenum.o
 .text.USBDEP0StateTx
                0x0000dde4       0xc8 ./usblib/device/usbdenum.o
 .text.USBDEP0StateTxConfig
                0x0000deac      0x210 ./usblib/device/usbdenum.o
 .text.USBDeviceIntHandlerInternal
                0x0000e0bc      0x208 ./usblib/device/usbdenum.o
                0x0000e0bc                USBDeviceIntHandlerInternal
 .text.USB0DeviceIntHandler
                0x0000e2c4       0x2c ./usblib/device/usbdhandler.o
                0x0000e2c4                USB0DeviceIntHandler
 .text.SetDeferredOpFlag
                0x0000e2f0       0x3c ./usblib/device/usbdhid.o
 .text.ClearReportTimer
                0x0000e32c       0x6c ./usblib/device/usbdhid.o
 .text.ClearIdleTimers
                0x0000e398       0x48 ./usblib/device/usbdhid.o
 .text.ProcessIdleTimers
                0x0000e3e0      0x124 ./usblib/device/usbdhid.o
 .text.SetIdleTimeout
                0x0000e504       0x98 ./usblib/device/usbdhid.o
 .text.GetIdleTimeout
                0x0000e59c       0x58 ./usblib/device/usbdhid.o
 .text.FindHIDDescriptor
                0x0000e5f4       0xc0 ./usblib/device/usbdhid.o
 .text.ScheduleReportTransmission
                0x0000e6b4       0x90 ./usblib/device/usbdhid.o
 .text.ProcessDataFromHost
                0x0000e744       0xb8 ./usblib/device/usbdhid.o
 .text.ProcessDataToHost
                0x0000e7fc       0x98 ./usblib/device/usbdhid.o
 .text.HandleEndpoints
                0x0000e894       0x60 ./usblib/device/usbdhid.o
 .text.HandleConfigChange
                0x0000e8f4       0x58 ./usblib/device/usbdhid.o
 .text.HandleDevice
                0x0000e94c       0xec ./usblib/device/usbdhid.o
 .text.HandleDisconnect
                0x0000ea38       0x38 ./usblib/device/usbdhid.o
 .text.HandleGetDescriptor
                0x0000ea70       0xc8 ./usblib/device/usbdhid.o
 .text.HandleRequest
                0x0000eb38      0x238 ./usblib/device/usbdhid.o
 .text.HandleEP0DataReceived
                0x0000ed70       0x50 ./usblib/device/usbdhid.o
 .text.HandleEP0DataSent
                0x0000edc0       0x44 ./usblib/device/usbdhid.o
 .text.HandleReset
                0x0000ee04       0x14 ./usblib/device/usbdhid.o
 .text.HandleSuspend
                0x0000ee18       0x24 ./usblib/device/usbdhid.o
 .text.HandleResume
                0x0000ee3c       0x24 ./usblib/device/usbdhid.o
 .text.HIDTickHandler
                0x0000ee60       0x70 ./usblib/device/usbdhid.o
 .text.USBDHIDInit
                0x0000eed0       0x44 ./usblib/device/usbdhid.o
                0x0000eed0                USBDHIDInit
 .text.USBDHIDCompositeInit
                0x0000ef14      0x18c ./usblib/device/usbdhid.o
                0x0000ef14                USBDHIDCompositeInit
 .text.USBDHIDTerm
                0x0000f0a0       0x20 ./usblib/device/usbdhid.o
                0x0000f0a0                USBDHIDTerm
 .text.USBDHIDSetRxCBData
                0x0000f0c0       0x24 ./usblib/device/usbdhid.o
                0x0000f0c0                USBDHIDSetRxCBData
 .text.USBDHIDSetTxCBData
                0x0000f0e4       0x24 ./usblib/device/usbdhid.o
                0x0000f0e4                USBDHIDSetTxCBData
 .text.USBDHIDReportWrite
                0x0000f108       0x84 ./usblib/device/usbdhid.o
                0x0000f108                USBDHIDReportWrite
 .text.USBDHIDPacketRead
                0x0000f18c       0xe0 ./usblib/device/usbdhid.o
                0x0000f18c                USBDHIDPacketRead
 .text.USBDHIDTxPacketAvailable
                0x0000f26c       0x2c ./usblib/device/usbdhid.o
                0x0000f26c                USBDHIDTxPacketAvailable
 .text.USBDHIDRxPacketAvailable
                0x0000f298       0x60 ./usblib/device/usbdhid.o
                0x0000f298                USBDHIDRxPacketAvailable
 .text.USBDHIDPowerStatusSet
                0x0000f2f8       0x1c ./usblib/device/usbdhid.o
                0x0000f2f8                USBDHIDPowerStatusSet
 .text.USBDHIDRemoteWakeupRequest
                0x0000f314       0x18 ./usblib/device/usbdhid.o
                0x0000f314                USBDHIDRemoteWakeupRequest
 .text.HIDKeyboardRxHandler
                0x0000f32c      0x134 ./usblib/device/usbdhidkeyb.o
 .text.HIDKeyboardTxHandler
                0x0000f460       0x74 ./usblib/device/usbdhidkeyb.o
 .text.AddKeyToPressedList
                0x0000f4d4       0x80 ./usblib/device/usbdhidkeyb.o
 .text.RemoveKeyFromPressedList
                0x0000f554       0x8c ./usblib/device/usbdhidkeyb.o
 .text.USBDHIDKeyboardInit
                0x0000f5e0       0x58 ./usblib/device/usbdhidkeyb.o
                0x0000f5e0                USBDHIDKeyboardInit
 .text.USBDHIDKeyboardCompositeInit
                0x0000f638      0x118 ./usblib/device/usbdhidkeyb.o
                0x0000f638                USBDHIDKeyboardCompositeInit
 .text.USBDHIDKeyboardTerm
                0x0000f750       0x24 ./usblib/device/usbdhidkeyb.o
                0x0000f750                USBDHIDKeyboardTerm
 .text.USBDHIDKeyboardSetCBData
                0x0000f774       0x28 ./usblib/device/usbdhidkeyb.o
                0x0000f774                USBDHIDKeyboardSetCBData
 .text.USBDHIDKeyboardKeyStateChange
                0x0000f79c       0xec ./usblib/device/usbdhidkeyb.o
                0x0000f79c                USBDHIDKeyboardKeyStateChange
 .text.USBDHIDKeyboardPowerStatusSet
                0x0000f888       0x28 ./usblib/device/usbdhidkeyb.o
                0x0000f888                USBDHIDKeyboardPowerStatusSet
 .text.USBDHIDKeyboardRemoteWakeupRequest
                0x0000f8b0       0x24 ./usblib/device/usbdhidkeyb.o
                0x0000f8b0                USBDHIDKeyboardRemoteWakeupRequest
 .text.HIDMouseRxHandler
                0x0000f8d4       0xe8 ./usblib/device/usbdhidmouse.o
 .text.HIDMouseTxHandler
                0x0000f9bc       0x44 ./usblib/device/usbdhidmouse.o
 .text.USBDHIDMouseInit
                0x0000fa00       0x58 ./usblib/device/usbdhidmouse.o
                0x0000fa00                USBDHIDMouseInit
 .text.USBDHIDMouseCompositeInit
                0x0000fa58       0xe8 ./usblib/device/usbdhidmouse.o
                0x0000fa58                USBDHIDMouseCompositeInit
 .text.USBDHIDMouseTerm
                0x0000fb40       0x24 ./usblib/device/usbdhidmouse.o
                0x0000fb40                USBDHIDMouseTerm
 .text.USBDHIDMouseSetCBData
                0x0000fb64       0x28 ./usblib/device/usbdhidmouse.o
                0x0000fb64                USBDHIDMouseSetCBData
 .text.USBDHIDMouseStateChange
                0x0000fb8c       0x80 ./usblib/device/usbdhidmouse.o
                0x0000fb8c                USBDHIDMouseStateChange
 .text.USBDHIDMousePowerStatusSet
                0x0000fc0c       0x28 ./usblib/device/usbdhidmouse.o
                0x0000fc0c                USBDHIDMousePowerStatusSet
 .text.USBDHIDMouseRemoteWakeupRequest
                0x0000fc34       0x28 ./usblib/device/usbdhidmouse.o
                0x0000fc34                USBDHIDMouseRemoteWakeupRequest
 .text.USBDMSCMediaChange
                0x0000fc5c       0x24 ./usblib/device/usbdmsc.o
                0x0000fc5c                USBDMSCMediaChange
 .text.HandleEndpoints
                0x0000fc80      0x450 ./usblib/device/usbdmsc.o
 .text.HandleDevice
                0x000100d0      0x264 ./usblib/device/usbdmsc.o
 .text.HandleDisconnect
                0x00010334       0x40 ./usblib/device/usbdmsc.o
 .text.ConfigChangeHandler
                0x00010374      0x1b4 ./usblib/device/usbdmsc.o
 .text.USBDMSCInit
                0x00010528       0x64 ./usblib/device/usbdmsc.o
                0x00010528                USBDMSCInit
 .text.USBDMSCCompositeInit
                0x0001058c      0x120 ./usblib/device/usbdmsc.o
                0x0001058c                USBDMSCCompositeInit
 .text.USBDMSCTerm
                0x000106ac       0x30 ./usblib/device/usbdmsc.o
                0x000106ac                USBDMSCTerm
 .text.HandleRequests
                0x000106dc       0x5c ./usblib/device/usbdmsc.o
 .text.USBDSCSIInquiry
                0x00010738       0xf8 ./usblib/device/usbdmsc.o
 .text.USBDSCSIReadCapacities
                0x00010830      0x144 ./usblib/device/usbdmsc.o
 .text.USBDSCSIReadCapacity
                0x00010974      0x144 ./usblib/device/usbdmsc.o
 .text.USBDSCSIRequestSense
                0x00010ab8       0xc8 ./usblib/device/usbdmsc.o
 .text.USBDSCSIRead10
                0x00010b80      0x168 ./usblib/device/usbdmsc.o
 .text.USBDSCSIWrite10
                0x00010ce8      0x124 ./usblib/device/usbdmsc.o
 .text.USBDSCSIModeSense6
                0x00010e0c       0xdc ./usblib/device/usbdmsc.o
 .text.USBDSCSISendStatus
                0x00010ee8       0x68 ./usblib/device/usbdmsc.o
 .text.USBDSCSIPreventAllowMediumRemoval
                0x00010f50       0xa8 ./usblib/device/usbdmsc.o
 .text.USBDSCSIStartStopUnit
                0x00010ff8      0x118 ./usblib/device/usbdmsc.o
 .text.USBDSCSICommand
                0x00011110      0x230 ./usblib/device/usbdmsc.o
                0x00011110                USBDSCSICommand
 .text.TickTimerSetup
                0x00011340       0x34 ./hal/HAL.o
                0x00011340                TickTimerSetup
 .text.OSRTCSetup
                0x00011374        0xc ./hal/HAL.o
                0x00011374                OSRTCSetup
 .text.TickTimer
                0x00011380       0x1c ./hal/HAL.o
                0x00011380                TickTimer
 .text.SwitchContext
                0x0001139c       0xc4 ./hal/HAL.o
                0x0001139c                SwitchContext
 .text.SwitchContextToFirstTask
                0x00011460       0x4c ./hal/HAL.o
                0x00011460                SwitchContextToFirstTask
 .text.CreateVirtualStack
                0x000114ac      0x12c ./hal/HAL.o
                0x000114ac                CreateVirtualStack
 .text.OS_CPU_SR_Save
                0x000115d8       0x1c ./hal/HAL.o
                0x000115d8                OS_CPU_SR_Save
 .text.OS_CPU_SR_Restore
                0x000115f4       0x18 ./hal/HAL.o
                0x000115f4                OS_CPU_SR_Restore
 .text.CPUcpsid
                0x0001160c       0x10 ./driverlib/cpu.o
                0x0001160c                CPUcpsid
 .text.CPUprimask
                0x0001161c        0xc ./driverlib/cpu.o
                0x0001161c                CPUprimask
 .text.CPUcpsie
                0x00011628       0x10 ./driverlib/cpu.o
                0x00011628                CPUcpsie
 .text.CPUwfi   0x00011638        0x4 ./driverlib/cpu.o
                0x00011638                CPUwfi
 .text.CPUbasepriSet
                0x0001163c        0x8 ./driverlib/cpu.o
                0x0001163c                CPUbasepriSet
 .text.CPUbasepriGet
                0x00011644        0xc ./driverlib/cpu.o
                0x00011644                CPUbasepriGet
 .text.FPUEnable
                0x00011650       0x1c ./driverlib/fpu.o
                0x00011650                FPUEnable
 .text.FPUDisable
                0x0001166c       0x1c ./driverlib/fpu.o
                0x0001166c                FPUDisable
 .text.FPUStackingEnable
                0x00011688       0x20 ./driverlib/fpu.o
                0x00011688                FPUStackingEnable
 .text.FPULazyStackingEnable
                0x000116a8       0x1c ./driverlib/fpu.o
                0x000116a8                FPULazyStackingEnable
 .text.FPUStackingDisable
                0x000116c4       0x1c ./driverlib/fpu.o
                0x000116c4                FPUStackingDisable
 .text.FPUHalfPrecisionModeSet
                0x000116e0       0x28 ./driverlib/fpu.o
                0x000116e0                FPUHalfPrecisionModeSet
 .text.FPUNaNModeSet
                0x00011708       0x28 ./driverlib/fpu.o
                0x00011708                FPUNaNModeSet
 .text.FPUFlushToZeroModeSet
                0x00011730       0x28 ./driverlib/fpu.o
                0x00011730                FPUFlushToZeroModeSet
 .text.FPURoundingModeSet
                0x00011758       0x28 ./driverlib/fpu.o
                0x00011758                FPURoundingModeSet
 .text._GPIOIntNumberGet
                0x00011780       0x78 ./driverlib/gpio.o
 .text.GPIODirModeSet
                0x000117f8       0x78 ./driverlib/gpio.o
                0x000117f8                GPIODirModeSet
 .text.GPIODirModeGet
                0x00011870       0x5c ./driverlib/gpio.o
                0x00011870                GPIODirModeGet
 .text.GPIOIntTypeSet
                0x000118cc       0xd8 ./driverlib/gpio.o
                0x000118cc                GPIOIntTypeSet
 .text.GPIOIntTypeGet
                0x000119a4       0x98 ./driverlib/gpio.o
                0x000119a4                GPIOIntTypeGet
 .text.GPIOPadConfigSet
                0x00011a3c      0x2b8 ./driverlib/gpio.o
                0x00011a3c                GPIOPadConfigSet
 .text.GPIOPadConfigGet
                0x00011cf4      0x170 ./driverlib/gpio.o
                0x00011cf4                GPIOPadConfigGet
 .text.GPIOIntEnable
                0x00011e64       0x28 ./driverlib/gpio.o
                0x00011e64                GPIOIntEnable
 .text.GPIOIntDisable
                0x00011e8c       0x2c ./driverlib/gpio.o
                0x00011e8c                GPIOIntDisable
 .text.GPIOIntStatus
                0x00011eb8       0x30 ./driverlib/gpio.o
                0x00011eb8                GPIOIntStatus
 .text.GPIOIntClear
                0x00011ee8       0x20 ./driverlib/gpio.o
                0x00011ee8                GPIOIntClear
 .text.GPIOIntRegister
                0x00011f08       0x28 ./driverlib/gpio.o
                0x00011f08                GPIOIntRegister
 .text.GPIOIntUnregister
                0x00011f30       0x24 ./driverlib/gpio.o
                0x00011f30                GPIOIntUnregister
 .text.GPIOPinRead
                0x00011f54       0x24 ./driverlib/gpio.o
                0x00011f54                GPIOPinRead
 .text.GPIOPinWrite
                0x00011f78       0x28 ./driverlib/gpio.o
                0x00011f78                GPIOPinWrite
 .text.GPIOPinTypeADC
                0x00011fa0       0x2c ./driverlib/gpio.o
                0x00011fa0                GPIOPinTypeADC
 .text.GPIOPinTypeCAN
                0x00011fcc       0x2c ./driverlib/gpio.o
                0x00011fcc                GPIOPinTypeCAN
 .text.GPIOPinTypeComparator
                0x00011ff8       0x2c ./driverlib/gpio.o
                0x00011ff8                GPIOPinTypeComparator
 .text.GPIOPinTypeEPI
                0x00012024       0x2c ./driverlib/gpio.o
                0x00012024                GPIOPinTypeEPI
 .text.GPIOPinTypeEthernetLED
                0x00012050       0x2c ./driverlib/gpio.o
                0x00012050                GPIOPinTypeEthernetLED
 .text.GPIOPinTypeEthernetMII
                0x0001207c       0x2c ./driverlib/gpio.o
                0x0001207c                GPIOPinTypeEthernetMII
 .text.GPIOPinTypeGPIOInput
                0x000120a8       0x2c ./driverlib/gpio.o
                0x000120a8                GPIOPinTypeGPIOInput
 .text.GPIOPinTypeGPIOOutput
                0x000120d4       0x2c ./driverlib/gpio.o
                0x000120d4                GPIOPinTypeGPIOOutput
 .text.GPIOPinTypeGPIOOutputOD
                0x00012100       0x2c ./driverlib/gpio.o
                0x00012100                GPIOPinTypeGPIOOutputOD
 .text.GPIOPinTypeI2C
                0x0001212c       0x2c ./driverlib/gpio.o
                0x0001212c                GPIOPinTypeI2C
 .text.GPIOPinTypeI2CSCL
                0x00012158       0x2c ./driverlib/gpio.o
                0x00012158                GPIOPinTypeI2CSCL
 .text.GPIOPinTypeLCD
                0x00012184       0x2c ./driverlib/gpio.o
                0x00012184                GPIOPinTypeLCD
 .text.GPIOPinTypeLPC
                0x000121b0       0x2c ./driverlib/gpio.o
                0x000121b0                GPIOPinTypeLPC
 .text.GPIOPinTypePECIRx
                0x000121dc       0x2c ./driverlib/gpio.o
                0x000121dc                GPIOPinTypePECIRx
 .text.GPIOPinTypePECITx
                0x00012208       0x2c ./driverlib/gpio.o
                0x00012208                GPIOPinTypePECITx
 .text.GPIOPinTypePWM
                0x00012234       0x2c ./driverlib/gpio.o
                0x00012234                GPIOPinTypePWM
 .text.GPIOPinTypeQEI
                0x00012260       0x2c ./driverlib/gpio.o
                0x00012260                GPIOPinTypeQEI
 .text.GPIOPinTypeSSI
                0x0001228c       0x2c ./driverlib/gpio.o
                0x0001228c                GPIOPinTypeSSI
 .text.GPIOPinTypeTimer
                0x000122b8       0x2c ./driverlib/gpio.o
                0x000122b8                GPIOPinTypeTimer
 .text.GPIOPinTypeUART
                0x000122e4       0x2c ./driverlib/gpio.o
                0x000122e4                GPIOPinTypeUART
 .text.GPIOPinTypeUSBAnalog
                0x00012310       0x2c ./driverlib/gpio.o
                0x00012310                GPIOPinTypeUSBAnalog
 .text.GPIOPinTypeUSBDigital
                0x0001233c       0x2c ./driverlib/gpio.o
                0x0001233c                GPIOPinTypeUSBDigital
 .text.GPIOPinTypeWakeHigh
                0x00012368       0x30 ./driverlib/gpio.o
                0x00012368                GPIOPinTypeWakeHigh
 .text.GPIOPinTypeWakeLow
                0x00012398       0x30 ./driverlib/gpio.o
                0x00012398                GPIOPinTypeWakeLow
 .text.GPIOPinTypeKBRow
                0x000123c8       0x2c ./driverlib/gpio.o
                0x000123c8                GPIOPinTypeKBRow
 .text.GPIOPinTypeKBColumn
                0x000123f4       0x2c ./driverlib/gpio.o
                0x000123f4                GPIOPinTypeKBColumn
 .text.GPIOPinTypeLEDSeq
                0x00012420       0x2c ./driverlib/gpio.o
                0x00012420                GPIOPinTypeLEDSeq
 .text.GPIOPinTypeCIR
                0x0001244c       0x2c ./driverlib/gpio.o
                0x0001244c                GPIOPinTypeCIR
 .text.GPIOPinWakeStatus
                0x00012478       0x1c ./driverlib/gpio.o
                0x00012478                GPIOPinWakeStatus
 .text.GPIOPinConfigure
                0x00012494       0x84 ./driverlib/gpio.o
                0x00012494                GPIOPinConfigure
 .text.GPIODMATriggerEnable
                0x00012518       0x2c ./driverlib/gpio.o
                0x00012518                GPIODMATriggerEnable
 .text.GPIODMATriggerDisable
                0x00012544       0x2c ./driverlib/gpio.o
                0x00012544                GPIODMATriggerDisable
 .text.GPIOADCTriggerEnable
                0x00012570       0x2c ./driverlib/gpio.o
                0x00012570                GPIOADCTriggerEnable
 .text.GPIOADCTriggerDisable
                0x0001259c       0x2c ./driverlib/gpio.o
                0x0001259c                GPIOADCTriggerDisable
 .text._IntDefaultHandler
                0x000125c8        0x8 ./driverlib/interrupt.o
 .text.IntMasterEnable
                0x000125d0       0x18 ./driverlib/interrupt.o
                0x000125d0                IntMasterEnable
 .text.IntMasterDisable
                0x000125e8       0x18 ./driverlib/interrupt.o
                0x000125e8                IntMasterDisable
 .text.IntRegister
                0x00012600       0x64 ./driverlib/interrupt.o
                0x00012600                IntRegister
 .text.IntUnregister
                0x00012664       0x24 ./driverlib/interrupt.o
                0x00012664                IntUnregister
 .text.IntPriorityGroupingSet
                0x00012688       0x30 ./driverlib/interrupt.o
                0x00012688                IntPriorityGroupingSet
 .text.IntPriorityGroupingGet
                0x000126b8       0x48 ./driverlib/interrupt.o
                0x000126b8                IntPriorityGroupingGet
 .text.IntPrioritySet
                0x00012700       0x60 ./driverlib/interrupt.o
                0x00012700                IntPrioritySet
 .text.IntPriorityGet
                0x00012760       0x34 ./driverlib/interrupt.o
                0x00012760                IntPriorityGet
 .text.IntEnable
                0x00012794       0x90 ./driverlib/interrupt.o
                0x00012794                IntEnable
 .text.IntDisable
                0x00012824       0x90 ./driverlib/interrupt.o
                0x00012824                IntDisable
 .text.IntIsEnabled
                0x000128b4       0x94 ./driverlib/interrupt.o
                0x000128b4                IntIsEnabled
 .text.IntPendSet
                0x00012948       0x78 ./driverlib/interrupt.o
                0x00012948                IntPendSet
 .text.IntPendClear
                0x000129c0       0x64 ./driverlib/interrupt.o
                0x000129c0                IntPendClear
 .text.IntPriorityMaskSet
                0x00012a24       0x14 ./driverlib/interrupt.o
                0x00012a24                IntPriorityMaskSet
 .text.IntPriorityMaskGet
                0x00012a38       0x10 ./driverlib/interrupt.o
                0x00012a38                IntPriorityMaskGet
 .text.IntTrigger
                0x00012a48       0x20 ./driverlib/interrupt.o
                0x00012a48                IntTrigger
 .text._SysCtlMemTimingGet
                0x00012a68       0x48 ./driverlib/sysctl.o
 .text._SysCtlFrequencyGet
                0x00012ab0       0xa0 ./driverlib/sysctl.o
 .text.SysCtlSRAMSizeGet
                0x00012b50       0x1c ./driverlib/sysctl.o
                0x00012b50                SysCtlSRAMSizeGet
 .text.SysCtlFlashSizeGet
                0x00012b6c       0x48 ./driverlib/sysctl.o
                0x00012b6c                SysCtlFlashSizeGet
 .text.SysCtlFlashSectorSizeGet
                0x00012bb4       0x44 ./driverlib/sysctl.o
                0x00012bb4                SysCtlFlashSectorSizeGet
 .text.SysCtlPeripheralPresent
                0x00012bf8       0x54 ./driverlib/sysctl.o
                0x00012bf8                SysCtlPeripheralPresent
 .text.SysCtlPeripheralReady
                0x00012c4c       0x54 ./driverlib/sysctl.o
                0x00012c4c                SysCtlPeripheralReady
 .text.SysCtlPeripheralPowerOn
                0x00012ca0       0x4c ./driverlib/sysctl.o
                0x00012ca0                SysCtlPeripheralPowerOn
 .text.SysCtlPeripheralPowerOff
                0x00012cec       0x4c ./driverlib/sysctl.o
                0x00012cec                SysCtlPeripheralPowerOff
 .text.SysCtlPeripheralReset
                0x00012d38       0x90 ./driverlib/sysctl.o
                0x00012d38                SysCtlPeripheralReset
 .text.SysCtlPeripheralEnable
                0x00012dc8       0x4c ./driverlib/sysctl.o
                0x00012dc8                SysCtlPeripheralEnable
 .text.SysCtlPeripheralDisable
                0x00012e14       0x4c ./driverlib/sysctl.o
                0x00012e14                SysCtlPeripheralDisable
 .text.SysCtlPeripheralSleepEnable
                0x00012e60       0x4c ./driverlib/sysctl.o
                0x00012e60                SysCtlPeripheralSleepEnable
 .text.SysCtlPeripheralSleepDisable
                0x00012eac       0x4c ./driverlib/sysctl.o
                0x00012eac                SysCtlPeripheralSleepDisable
 .text.SysCtlPeripheralDeepSleepEnable
                0x00012ef8       0x4c ./driverlib/sysctl.o
                0x00012ef8                SysCtlPeripheralDeepSleepEnable
 .text.SysCtlPeripheralDeepSleepDisable
                0x00012f44       0x4c ./driverlib/sysctl.o
                0x00012f44                SysCtlPeripheralDeepSleepDisable
 .text.SysCtlPeripheralClockGating
                0x00012f90       0x78 ./driverlib/sysctl.o
                0x00012f90                SysCtlPeripheralClockGating
 .text.SysCtlIntRegister
                0x00013008       0x1c ./driverlib/sysctl.o
                0x00013008                SysCtlIntRegister
 .text.SysCtlIntUnregister
                0x00013024       0x14 ./driverlib/sysctl.o
                0x00013024                SysCtlIntUnregister
 .text.SysCtlIntEnable
                0x00013038       0x24 ./driverlib/sysctl.o
                0x00013038                SysCtlIntEnable
 .text.SysCtlIntDisable
                0x0001305c       0x24 ./driverlib/sysctl.o
                0x0001305c                SysCtlIntDisable
 .text.SysCtlIntClear
                0x00013080       0x1c ./driverlib/sysctl.o
                0x00013080                SysCtlIntClear
 .text.SysCtlIntStatus
                0x0001309c       0x30 ./driverlib/sysctl.o
                0x0001309c                SysCtlIntStatus
 .text.SysCtlLDOSleepSet
                0x000130cc       0x1c ./driverlib/sysctl.o
                0x000130cc                SysCtlLDOSleepSet
 .text.SysCtlLDOSleepGet
                0x000130e8       0x18 ./driverlib/sysctl.o
                0x000130e8                SysCtlLDOSleepGet
 .text.SysCtlLDODeepSleepSet
                0x00013100       0x1c ./driverlib/sysctl.o
                0x00013100                SysCtlLDODeepSleepSet
 .text.SysCtlLDODeepSleepGet
                0x0001311c       0x18 ./driverlib/sysctl.o
                0x0001311c                SysCtlLDODeepSleepGet
 .text.SysCtlSleepPowerSet
                0x00013134       0x1c ./driverlib/sysctl.o
                0x00013134                SysCtlSleepPowerSet
 .text.SysCtlDeepSleepPowerSet
                0x00013150       0x1c ./driverlib/sysctl.o
                0x00013150                SysCtlDeepSleepPowerSet
 .text.SysCtlReset
                0x0001316c       0x14 ./driverlib/sysctl.o
                0x0001316c                SysCtlReset
 .text.SysCtlSleep
                0x00013180        0xc ./driverlib/sysctl.o
                0x00013180                SysCtlSleep
 .text.SysCtlDeepSleep
                0x0001318c       0x28 ./driverlib/sysctl.o
                0x0001318c                SysCtlDeepSleep
 .text.SysCtlResetCauseGet
                0x000131b4       0x18 ./driverlib/sysctl.o
                0x000131b4                SysCtlResetCauseGet
 .text.SysCtlResetCauseClear
                0x000131cc       0x24 ./driverlib/sysctl.o
                0x000131cc                SysCtlResetCauseClear
 .text.SysCtlDelay
                0x000131f0        0x8 ./driverlib/sysctl.o
                0x000131f0                SysCtlDelay
 .text.SysCtlMOSCConfigSet
                0x000131f8       0x1c ./driverlib/sysctl.o
                0x000131f8                SysCtlMOSCConfigSet
 .text.SysCtlPIOSCCalibrate
                0x00013214       0x74 ./driverlib/sysctl.o
                0x00013214                SysCtlPIOSCCalibrate
 .text.SysCtlResetBehaviorSet
                0x00013288       0x1c ./driverlib/sysctl.o
                0x00013288                SysCtlResetBehaviorSet
 .text.SysCtlResetBehaviorGet
                0x000132a4       0x18 ./driverlib/sysctl.o
                0x000132a4                SysCtlResetBehaviorGet
 .text.SysCtlClockFreqSet
                0x000132bc      0x358 ./driverlib/sysctl.o
                0x000132bc                SysCtlClockFreqSet
 .text.SysCtlClockSet
                0x00013614      0x1f4 ./driverlib/sysctl.o
                0x00013614                SysCtlClockSet
 .text.SysCtlClockGet
                0x00013808      0x214 ./driverlib/sysctl.o
                0x00013808                SysCtlClockGet
 .text.SysCtlDeepSleepClockSet
                0x00013a1c       0x1c ./driverlib/sysctl.o
                0x00013a1c                SysCtlDeepSleepClockSet
 .text.SysCtlDeepSleepClockConfigSet
                0x00013a38       0xa8 ./driverlib/sysctl.o
                0x00013a38                SysCtlDeepSleepClockConfigSet
 .text.SysCtlPWMClockSet
                0x00013ae0       0x28 ./driverlib/sysctl.o
                0x00013ae0                SysCtlPWMClockSet
 .text.SysCtlPWMClockGet
                0x00013b08       0x2c ./driverlib/sysctl.o
                0x00013b08                SysCtlPWMClockGet
 .text.SysCtlGPIOAHBEnable
                0x00013b34       0x2c ./driverlib/sysctl.o
                0x00013b34                SysCtlGPIOAHBEnable
 .text.SysCtlGPIOAHBDisable
                0x00013b60       0x30 ./driverlib/sysctl.o
                0x00013b60                SysCtlGPIOAHBDisable
 .text.SysCtlUSBPLLEnable
                0x00013b90       0x1c ./driverlib/sysctl.o
                0x00013b90                SysCtlUSBPLLEnable
 .text.SysCtlUSBPLLDisable
                0x00013bac       0x1c ./driverlib/sysctl.o
                0x00013bac                SysCtlUSBPLLDisable
 .text.SysCtlVoltageEventConfig
                0x00013bc8       0x1c ./driverlib/sysctl.o
                0x00013bc8                SysCtlVoltageEventConfig
 .text.SysCtlVoltageEventStatus
                0x00013be4       0x18 ./driverlib/sysctl.o
                0x00013be4                SysCtlVoltageEventStatus
 .text.SysCtlVoltageEventClear
                0x00013bfc       0x24 ./driverlib/sysctl.o
                0x00013bfc                SysCtlVoltageEventClear
 .text.SysCtlNMIStatus
                0x00013c20       0x18 ./driverlib/sysctl.o
                0x00013c20                SysCtlNMIStatus
 .text.SysCtlNMIClear
                0x00013c38       0x24 ./driverlib/sysctl.o
                0x00013c38                SysCtlNMIClear
 .text.SysCtlClockOutConfig
                0x00013c5c       0x28 ./driverlib/sysctl.o
                0x00013c5c                SysCtlClockOutConfig
 .text.SysCtlAltClkConfig
                0x00013c84       0x1c ./driverlib/sysctl.o
                0x00013c84                SysCtlAltClkConfig
 .text._TimerIntNumberGet
                0x00013ca0       0x8c ./driverlib/timer.o
 .text.TimerEnable
                0x00013d2c       0x2c ./driverlib/timer.o
                0x00013d2c                TimerEnable
 .text.TimerDisable
                0x00013d58       0x30 ./driverlib/timer.o
                0x00013d58                TimerDisable
 .text.TimerConfigure
                0x00013d88       0xa0 ./driverlib/timer.o
                0x00013d88                TimerConfigure
 .text.TimerControlLevel
                0x00013e28       0x48 ./driverlib/timer.o
                0x00013e28                TimerControlLevel
 .text.TimerControlTrigger
                0x00013e70       0x98 ./driverlib/timer.o
                0x00013e70                TimerControlTrigger
 .text.TimerControlEvent
                0x00013f08       0x3c ./driverlib/timer.o
                0x00013f08                TimerControlEvent
 .text.TimerControlStall
                0x00013f44       0x48 ./driverlib/timer.o
                0x00013f44                TimerControlStall
 .text.TimerControlWaitOnTrigger
                0x00013f8c       0x7c ./driverlib/timer.o
                0x00013f8c                TimerControlWaitOnTrigger
 .text.TimerRTCEnable
                0x00014008       0x24 ./driverlib/timer.o
                0x00014008                TimerRTCEnable
 .text.TimerRTCDisable
                0x0001402c       0x24 ./driverlib/timer.o
                0x0001402c                TimerRTCDisable
 .text.TimerClockSourceSet
                0x00014050       0x20 ./driverlib/timer.o
                0x00014050                TimerClockSourceSet
 .text.TimerClockSourceGet
                0x00014070       0x1c ./driverlib/timer.o
                0x00014070                TimerClockSourceGet
 .text.TimerPrescaleSet
                0x0001408c       0x38 ./driverlib/timer.o
                0x0001408c                TimerPrescaleSet
 .text.TimerPrescaleGet
                0x000140c4       0x2c ./driverlib/timer.o
                0x000140c4                TimerPrescaleGet
 .text.TimerPrescaleMatchSet
                0x000140f0       0x38 ./driverlib/timer.o
                0x000140f0                TimerPrescaleMatchSet
 .text.TimerPrescaleMatchGet
                0x00014128       0x2c ./driverlib/timer.o
                0x00014128                TimerPrescaleMatchGet
 .text.TimerLoadSet
                0x00014154       0x38 ./driverlib/timer.o
                0x00014154                TimerLoadSet
 .text.TimerLoadGet
                0x0001418c       0x2c ./driverlib/timer.o
                0x0001418c                TimerLoadGet
 .text.TimerLoadSet64
                0x000141b8       0x30 ./driverlib/timer.o
                0x000141b8                TimerLoadSet64
 .text.TimerLoadGet64
                0x000141e8       0x54 ./driverlib/timer.o
                0x000141e8                TimerLoadGet64
 .text.TimerValueGet
                0x0001423c       0x2c ./driverlib/timer.o
                0x0001423c                TimerValueGet
 .text.TimerValueGet64
                0x00014268       0x54 ./driverlib/timer.o
                0x00014268                TimerValueGet64
 .text.TimerMatchSet
                0x000142bc       0x38 ./driverlib/timer.o
                0x000142bc                TimerMatchSet
 .text.TimerMatchGet
                0x000142f4       0x2c ./driverlib/timer.o
                0x000142f4                TimerMatchGet
 .text.TimerMatchSet64
                0x00014320       0x30 ./driverlib/timer.o
                0x00014320                TimerMatchSet64
 .text.TimerMatchGet64
                0x00014350       0x54 ./driverlib/timer.o
                0x00014350                TimerMatchGet64
 .text.TimerIntRegister
                0x000143a4       0x2c ./driverlib/timer.o
                0x000143a4                TimerIntRegister
 .text.TimerIntUnregister
                0x000143d0       0x28 ./driverlib/timer.o
                0x000143d0                TimerIntUnregister
 .text.TimerIntEnable
                0x000143f8       0x24 ./driverlib/timer.o
                0x000143f8                TimerIntEnable
 .text.TimerIntDisable
                0x0001441c       0x28 ./driverlib/timer.o
                0x0001441c                TimerIntDisable
 .text.TimerIntStatus
                0x00014444       0x2c ./driverlib/timer.o
                0x00014444                TimerIntStatus
 .text.TimerIntClear
                0x00014470       0x1c ./driverlib/timer.o
                0x00014470                TimerIntClear
 .text.TimerSynchronize
                0x0001448c       0x1c ./driverlib/timer.o
                0x0001448c                TimerSynchronize
 .text.TimerADCEventSet
                0x000144a8       0x1c ./driverlib/timer.o
                0x000144a8                TimerADCEventSet
 .text.TimerADCEventGet
                0x000144c4       0x1c ./driverlib/timer.o
                0x000144c4                TimerADCEventGet
 .text.TimerDMAEventSet
                0x000144e0       0x1c ./driverlib/timer.o
                0x000144e0                TimerDMAEventSet
 .text.TimerDMAEventGet
                0x000144fc       0x1c ./driverlib/timer.o
                0x000144fc                TimerDMAEventGet
 .text.TimerUpdateMode
                0x00014518       0x64 ./driverlib/timer.o
                0x00014518                TimerUpdateMode
 .text._UARTIntNumberGet
                0x0001457c       0x78 ./driverlib/uart.o
 .text.UARTParityModeSet
                0x000145f4       0x28 ./driverlib/uart.o
                0x000145f4                UARTParityModeSet
 .text.UARTParityModeGet
                0x0001461c       0x20 ./driverlib/uart.o
                0x0001461c                UARTParityModeGet
 .text.UARTFIFOLevelSet
                0x0001463c       0x24 ./driverlib/uart.o
                0x0001463c                UARTFIFOLevelSet
 .text.UARTFIFOLevelGet
                0x00014660       0x34 ./driverlib/uart.o
                0x00014660                UARTFIFOLevelGet
 .text.UARTConfigSetExpClk
                0x00014694       0x88 ./driverlib/uart.o
                0x00014694                UARTConfigSetExpClk
 .text.UARTConfigGetExpClk
                0x0001471c       0x64 ./driverlib/uart.o
                0x0001471c                UARTConfigGetExpClk
 .text.UARTEnable
                0x00014780       0x38 ./driverlib/uart.o
                0x00014780                UARTEnable
 .text.UARTDisable
                0x000147b8       0x48 ./driverlib/uart.o
                0x000147b8                UARTDisable
 .text.UARTFIFOEnable
                0x00014800       0x24 ./driverlib/uart.o
                0x00014800                UARTFIFOEnable
 .text.UARTFIFODisable
                0x00014824       0x24 ./driverlib/uart.o
                0x00014824                UARTFIFODisable
 .text.UARTEnableSIR
                0x00014848       0x40 ./driverlib/uart.o
                0x00014848                UARTEnableSIR
 .text.UARTDisableSIR
                0x00014888       0x24 ./driverlib/uart.o
                0x00014888                UARTDisableSIR
 .text.UARTSmartCardEnable
                0x000148ac       0x44 ./driverlib/uart.o
                0x000148ac                UARTSmartCardEnable
 .text.UARTSmartCardDisable
                0x000148f0       0x24 ./driverlib/uart.o
                0x000148f0                UARTSmartCardDisable
 .text.UARTModemControlSet
                0x00014914       0x30 ./driverlib/uart.o
                0x00014914                UARTModemControlSet
 .text.UARTModemControlClear
                0x00014944       0x34 ./driverlib/uart.o
                0x00014944                UARTModemControlClear
 .text.UARTModemControlGet
                0x00014978       0x20 ./driverlib/uart.o
                0x00014978                UARTModemControlGet
 .text.UARTModemStatusGet
                0x00014998       0x20 ./driverlib/uart.o
                0x00014998                UARTModemStatusGet
 .text.UARTFlowControlSet
                0x000149b8       0x28 ./driverlib/uart.o
                0x000149b8                UARTFlowControlSet
 .text.UARTFlowControlGet
                0x000149e0       0x20 ./driverlib/uart.o
                0x000149e0                UARTFlowControlGet
 .text.UARTTxIntModeSet
                0x00014a00       0x28 ./driverlib/uart.o
                0x00014a00                UARTTxIntModeSet
 .text.UARTTxIntModeGet
                0x00014a28       0x20 ./driverlib/uart.o
                0x00014a28                UARTTxIntModeGet
 .text.UARTCharsAvail
                0x00014a48       0x28 ./driverlib/uart.o
                0x00014a48                UARTCharsAvail
 .text.UARTSpaceAvail
                0x00014a70       0x28 ./driverlib/uart.o
                0x00014a70                UARTSpaceAvail
 .text.UARTCharGetNonBlocking
                0x00014a98       0x2c ./driverlib/uart.o
                0x00014a98                UARTCharGetNonBlocking
 .text.UARTCharGet
                0x00014ac4       0x28 ./driverlib/uart.o
                0x00014ac4                UARTCharGet
 .text.UARTCharPutNonBlocking
                0x00014aec       0x34 ./driverlib/uart.o
                0x00014aec                UARTCharPutNonBlocking
 .text.UARTCharPut
                0x00014b20       0x2c ./driverlib/uart.o
                0x00014b20                UARTCharPut
 .text.UARTBreakCtl
                0x00014b4c       0x3c ./driverlib/uart.o
                0x00014b4c                UARTBreakCtl
 .text.UARTBusy
                0x00014b88       0x28 ./driverlib/uart.o
                0x00014b88                UARTBusy
 .text.UARTIntRegister
                0x00014bb0       0x28 ./driverlib/uart.o
                0x00014bb0                UARTIntRegister
 .text.UARTIntUnregister
                0x00014bd8       0x24 ./driverlib/uart.o
                0x00014bd8                UARTIntUnregister
 .text.UARTIntEnable
                0x00014bfc       0x24 ./driverlib/uart.o
                0x00014bfc                UARTIntEnable
 .text.UARTIntDisable
                0x00014c20       0x28 ./driverlib/uart.o
                0x00014c20                UARTIntDisable
 .text.UARTIntStatus
                0x00014c48       0x2c ./driverlib/uart.o
                0x00014c48                UARTIntStatus
 .text.UARTIntClear
                0x00014c74       0x1c ./driverlib/uart.o
                0x00014c74                UARTIntClear
 .text.UARTDMAEnable
                0x00014c90       0x24 ./driverlib/uart.o
                0x00014c90                UARTDMAEnable
 .text.UARTDMADisable
                0x00014cb4       0x28 ./driverlib/uart.o
                0x00014cb4                UARTDMADisable
 .text.UARTRxErrorGet
                0x00014cdc       0x20 ./driverlib/uart.o
                0x00014cdc                UARTRxErrorGet
 .text.UARTRxErrorClear
                0x00014cfc       0x1c ./driverlib/uart.o
                0x00014cfc                UARTRxErrorClear
 .text.UARTClockSourceSet
                0x00014d18       0x20 ./driverlib/uart.o
                0x00014d18                UARTClockSourceSet
 .text.UARTClockSourceGet
                0x00014d38       0x1c ./driverlib/uart.o
                0x00014d38                UARTClockSourceGet
 .text.UART9BitEnable
                0x00014d54       0x24 ./driverlib/uart.o
                0x00014d54                UART9BitEnable
 .text.UART9BitDisable
                0x00014d78       0x24 ./driverlib/uart.o
                0x00014d78                UART9BitDisable
 .text.UART9BitAddrSet
                0x00014d9c       0x2c ./driverlib/uart.o
                0x00014d9c                UART9BitAddrSet
 .text.UART9BitAddrSend
                0x00014dc8       0x5c ./driverlib/uart.o
                0x00014dc8                UART9BitAddrSend
 .text._USBIndexWrite
                0x00014e24       0x58 ./driverlib/usb.o
 .text._USBIndexRead
                0x00014e7c       0x54 ./driverlib/usb.o
 .text.USBHostSuspend
                0x00014ed0       0x28 ./driverlib/usb.o
                0x00014ed0                USBHostSuspend
 .text.USBHostReset
                0x00014ef8       0x48 ./driverlib/usb.o
                0x00014ef8                USBHostReset
 .text.USBHighSpeed
                0x00014f40       0x48 ./driverlib/usb.o
                0x00014f40                USBHighSpeed
 .text.USBHostResume
                0x00014f88       0x48 ./driverlib/usb.o
                0x00014f88                USBHostResume
 .text.USBHostSpeedGet
                0x00014fd0       0x54 ./driverlib/usb.o
                0x00014fd0                USBHostSpeedGet
 .text.USBDevSpeedGet
                0x00015024       0x2c ./driverlib/usb.o
                0x00015024                USBDevSpeedGet
 .text.USBIntDisableControl
                0x00015050       0x60 ./driverlib/usb.o
                0x00015050                USBIntDisableControl
 .text.USBIntEnableControl
                0x000150b0       0x5c ./driverlib/usb.o
                0x000150b0                USBIntEnableControl
 .text.USBIntStatusControl
                0x0001510c       0x74 ./driverlib/usb.o
                0x0001510c                USBIntStatusControl
 .text.USBIntDisableEndpoint
                0x00015180       0x50 ./driverlib/usb.o
                0x00015180                USBIntDisableEndpoint
 .text.USBIntEnableEndpoint
                0x000151d0       0x48 ./driverlib/usb.o
                0x000151d0                USBIntEnableEndpoint
 .text.USBIntStatusEndpoint
                0x00015218       0x30 ./driverlib/usb.o
                0x00015218                USBIntStatusEndpoint
 .text._USBIntNumberGet
                0x00015248       0x54 ./driverlib/usb.o
 .text.USBIntRegister
                0x0001529c       0x28 ./driverlib/usb.o
                0x0001529c                USBIntRegister
 .text.USBIntUnregister
                0x000152c4       0x24 ./driverlib/usb.o
                0x000152c4                USBIntUnregister
 .text.USBEndpointStatus
                0x000152e8       0x40 ./driverlib/usb.o
                0x000152e8                USBEndpointStatus
 .text.USBHostEndpointStatusClear
                0x00015328       0x8c ./driverlib/usb.o
                0x00015328                USBHostEndpointStatusClear
 .text.USBDevEndpointStatusClear
                0x000153b4       0xdc ./driverlib/usb.o
                0x000153b4                USBDevEndpointStatusClear
 .text.USBHostEndpointDataToggle
                0x00015490       0xd4 ./driverlib/usb.o
                0x00015490                USBHostEndpointDataToggle
 .text.USBEndpointDataToggleClear
                0x00015564       0x64 ./driverlib/usb.o
                0x00015564                USBEndpointDataToggleClear
 .text.USBHostEndpointPing
                0x000155c8       0x44 ./driverlib/usb.o
                0x000155c8                USBHostEndpointPing
 .text.USBDevEndpointStall
                0x0001560c       0x80 ./driverlib/usb.o
                0x0001560c                USBDevEndpointStall
 .text.USBDevEndpointStallClear
                0x0001568c       0xc0 ./driverlib/usb.o
                0x0001568c                USBDevEndpointStallClear
 .text.USBDevConnect
                0x0001574c       0x28 ./driverlib/usb.o
                0x0001574c                USBDevConnect
 .text.USBDevDisconnect
                0x00015774       0x28 ./driverlib/usb.o
                0x00015774                USBDevDisconnect
 .text.USBDevAddrSet
                0x0001579c       0x1c ./driverlib/usb.o
                0x0001579c                USBDevAddrSet
 .text.USBDevAddrGet
                0x000157b8       0x1c ./driverlib/usb.o
                0x000157b8                USBDevAddrGet
 .text.USBHostEndpointConfig
                0x000157d4      0x1f0 ./driverlib/usb.o
                0x000157d4                USBHostEndpointConfig
 .text.USBHostEndpointSpeed
                0x000159c4       0xd8 ./driverlib/usb.o
                0x000159c4                USBHostEndpointSpeed
 .text.USBDevEndpointConfigSet
                0x00015a9c      0x12c ./driverlib/usb.o
                0x00015a9c                USBDevEndpointConfigSet
 .text.USBDevEndpointConfigGet
                0x00015bc8      0x144 ./driverlib/usb.o
                0x00015bc8                USBDevEndpointConfigGet
 .text.USBFIFOConfigSet
                0x00015d0c       0x74 ./driverlib/usb.o
                0x00015d0c                USBFIFOConfigSet
 .text.USBFIFOConfigGet
                0x00015d80       0x7c ./driverlib/usb.o
                0x00015d80                USBFIFOConfigGet
 .text.USBEndpointDMAConfigSet
                0x00015dfc       0xc4 ./driverlib/usb.o
                0x00015dfc                USBEndpointDMAConfigSet
 .text.USBEndpointDMAEnable
                0x00015ec0       0x64 ./driverlib/usb.o
                0x00015ec0                USBEndpointDMAEnable
 .text.USBEndpointDMADisable
                0x00015f24       0x64 ./driverlib/usb.o
                0x00015f24                USBEndpointDMADisable
 .text.USBEndpointDataAvail
                0x00015f88       0x50 ./driverlib/usb.o
                0x00015f88                USBEndpointDataAvail
 .text.USBEndpointDataGet
                0x00015fd8       0x9c ./driverlib/usb.o
                0x00015fd8                USBEndpointDataGet
 .text.USBDevEndpointDataAck
                0x00016074       0x58 ./driverlib/usb.o
                0x00016074                USBDevEndpointDataAck
 .text.USBHostEndpointDataAck
                0x000160cc       0x54 ./driverlib/usb.o
                0x000160cc                USBHostEndpointDataAck
 .text.USBEndpointDataPut
                0x00016120       0x70 ./driverlib/usb.o
                0x00016120                USBEndpointDataPut
 .text.USBEndpointDataSend
                0x00016190       0x74 ./driverlib/usb.o
                0x00016190                USBEndpointDataSend
 .text.USBFIFOFlush
                0x00016204       0xb4 ./driverlib/usb.o
                0x00016204                USBFIFOFlush
 .text.USBHostRequestIN
                0x000162b8       0x34 ./driverlib/usb.o
                0x000162b8                USBHostRequestIN
 .text.USBHostRequestINClear
                0x000162ec       0x44 ./driverlib/usb.o
                0x000162ec                USBHostRequestINClear
 .text.USBHostRequestStatus
                0x00016330       0x1c ./driverlib/usb.o
                0x00016330                USBHostRequestStatus
 .text.USBHostAddrSet
                0x0001634c       0x44 ./driverlib/usb.o
                0x0001634c                USBHostAddrSet
 .text.USBHostAddrGet
                0x00016390       0x40 ./driverlib/usb.o
                0x00016390                USBHostAddrGet
 .text.USBHostHubAddrSet
                0x000163d0       0x80 ./driverlib/usb.o
                0x000163d0                USBHostHubAddrSet
 .text.USBHostHubAddrGet
                0x00016450       0x40 ./driverlib/usb.o
                0x00016450                USBHostHubAddrGet
 .text.USBHostPwrConfig
                0x00016490       0x48 ./driverlib/usb.o
                0x00016490                USBHostPwrConfig
 .text.USBHostPwrFaultEnable
                0x000164d8       0x2c ./driverlib/usb.o
                0x000164d8                USBHostPwrFaultEnable
 .text.USBHostPwrFaultDisable
                0x00016504       0x2c ./driverlib/usb.o
                0x00016504                USBHostPwrFaultDisable
 .text.USBHostPwrEnable
                0x00016530       0x2c ./driverlib/usb.o
                0x00016530                USBHostPwrEnable
 .text.USBHostPwrDisable
                0x0001655c       0x2c ./driverlib/usb.o
                0x0001655c                USBHostPwrDisable
 .text.USBFrameNumberGet
                0x00016588       0x1c ./driverlib/usb.o
                0x00016588                USBFrameNumberGet
 .text.USBOTGSessionRequest
                0x000165a4       0x48 ./driverlib/usb.o
                0x000165a4                USBOTGSessionRequest
 .text.USBFIFOAddrGet
                0x000165ec       0x20 ./driverlib/usb.o
                0x000165ec                USBFIFOAddrGet
 .text.USBModeGet
                0x0001660c       0x20 ./driverlib/usb.o
                0x0001660c                USBModeGet
 .text.USBEndpointDMAChannel
                0x0001662c       0x50 ./driverlib/usb.o
                0x0001662c                USBEndpointDMAChannel
 .text.USBHostMode
                0x0001667c       0x1c ./driverlib/usb.o
                0x0001667c                USBHostMode
 .text.USBDevMode
                0x00016698       0x1c ./driverlib/usb.o
                0x00016698                USBDevMode
 .text.USBOTGMode
                0x000166b4       0x1c ./driverlib/usb.o
                0x000166b4                USBOTGMode
 .text.USBModeConfig
                0x000166d0       0x20 ./driverlib/usb.o
                0x000166d0                USBModeConfig
 .text.USBPHYPowerOff
                0x000166f0       0x28 ./driverlib/usb.o
                0x000166f0                USBPHYPowerOff
 .text.USBPHYPowerOn
                0x00016718       0x28 ./driverlib/usb.o
                0x00016718                USBPHYPowerOn
 .text.USBEndpointPacketCountSet
                0x00016740       0x30 ./driverlib/usb.o
                0x00016740                USBEndpointPacketCountSet
 .text.USBNumEndpointsGet
                0x00016770       0x20 ./driverlib/usb.o
                0x00016770                USBNumEndpointsGet
 .text.USBControllerVersion
                0x00016790       0x20 ./driverlib/usb.o
                0x00016790                USBControllerVersion
 .text.USBClockEnable
                0x000167b0       0x28 ./driverlib/usb.o
                0x000167b0                USBClockEnable
 .text.USBClockDisable
                0x000167d8       0x1c ./driverlib/usb.o
                0x000167d8                USBClockDisable
 .text.USBDMAChannelIntEnable
                0x000167f4       0x34 ./driverlib/usb.o
                0x000167f4                USBDMAChannelIntEnable
 .text.USBDMAChannelIntDisable
                0x00016828       0x34 ./driverlib/usb.o
                0x00016828                USBDMAChannelIntDisable
 .text.USBDMAChannelIntStatus
                0x0001685c       0x1c ./driverlib/usb.o
                0x0001685c                USBDMAChannelIntStatus
 .text.USBDMAChannelEnable
                0x00016878       0x34 ./driverlib/usb.o
                0x00016878                USBDMAChannelEnable
 .text.USBDMAChannelDisable
                0x000168ac       0x34 ./driverlib/usb.o
                0x000168ac                USBDMAChannelDisable
 .text.USBDMAChannelConfigSet
                0x000168e0       0x3c ./driverlib/usb.o
                0x000168e0                USBDMAChannelConfigSet
 .text.USBDMAChannelStatus
                0x0001691c       0x28 ./driverlib/usb.o
                0x0001691c                USBDMAChannelStatus
 .text.USBDMAChannelStatusClear
                0x00016944       0x40 ./driverlib/usb.o
                0x00016944                USBDMAChannelStatusClear
 .text.USBDMAChannelAddressSet
                0x00016984       0x28 ./driverlib/usb.o
                0x00016984                USBDMAChannelAddressSet
 .text.USBDMAChannelAddressGet
                0x000169ac       0x24 ./driverlib/usb.o
                0x000169ac                USBDMAChannelAddressGet
 .text.USBDMAChannelCountSet
                0x000169d0       0x28 ./driverlib/usb.o
                0x000169d0                USBDMAChannelCountSet
 .text.USBDMAChannelCountGet
                0x000169f8       0x24 ./driverlib/usb.o
                0x000169f8                USBDMAChannelCountGet
 .text.USBDMANumChannels
                0x00016a1c       0x1c ./driverlib/usb.o
                0x00016a1c                USBDMANumChannels
 .text.USBULPIConfig
                0x00016a38       0x20 ./driverlib/usb.o
                0x00016a38                USBULPIConfig
 .text.USBULPIEnable
                0x00016a58       0x28 ./driverlib/usb.o
                0x00016a58                USBULPIEnable
 .text.USBULPIDisable
                0x00016a80       0x28 ./driverlib/usb.o
                0x00016a80                USBULPIDisable
 .text.USBULPIRegRead
                0x00016aa8       0x4c ./driverlib/usb.o
                0x00016aa8                USBULPIRegRead
 .text.USBULPIRegWrite
                0x00016af4       0x4c ./driverlib/usb.o
                0x00016af4                USBULPIRegWrite
 .text.USBHostLPMSend
                0x00016b40       0x64 ./driverlib/usb.o
                0x00016b40                USBHostLPMSend
 .text.USBHostLPMConfig
                0x00016ba4       0x40 ./driverlib/usb.o
                0x00016ba4                USBHostLPMConfig
 .text.USBHostLPMResume
                0x00016be4       0x2c ./driverlib/usb.o
                0x00016be4                USBHostLPMResume
 .text.USBDevLPMRemoteWake
                0x00016c10       0x2c ./driverlib/usb.o
                0x00016c10                USBDevLPMRemoteWake
 .text.USBDevLPMConfig
                0x00016c3c       0x20 ./driverlib/usb.o
                0x00016c3c                USBDevLPMConfig
 .text.USBDevLPMEnable
                0x00016c5c       0x2c ./driverlib/usb.o
                0x00016c5c                USBDevLPMEnable
 .text.USBDevLPMDisable
                0x00016c88       0x2c ./driverlib/usb.o
                0x00016c88                USBDevLPMDisable
 .text.USBLPMLinkStateGet
                0x00016cb4       0x24 ./driverlib/usb.o
                0x00016cb4                USBLPMLinkStateGet
 .text.USBLPMEndpointGet
                0x00016cd8       0x28 ./driverlib/usb.o
                0x00016cd8                USBLPMEndpointGet
 .text.USBLPMRemoteWakeEnabled
                0x00016d00       0x2c ./driverlib/usb.o
                0x00016d00                USBLPMRemoteWakeEnabled
 .text.USBLPMIntStatus
                0x00016d2c       0x20 ./driverlib/usb.o
                0x00016d2c                USBLPMIntStatus
 .text.USBLPMIntEnable
                0x00016d4c       0x30 ./driverlib/usb.o
                0x00016d4c                USBLPMIntEnable
 .text.USBLPMIntDisable
                0x00016d7c       0x34 ./driverlib/usb.o
                0x00016d7c                USBLPMIntDisable
 .text.WatchdogRunning
                0x00016db0       0x28 ./driverlib/watchdog.o
                0x00016db0                WatchdogRunning
 .text.WatchdogEnable
                0x00016dd8       0x24 ./driverlib/watchdog.o
                0x00016dd8                WatchdogEnable
 .text.WatchdogResetEnable
                0x00016dfc       0x24 ./driverlib/watchdog.o
                0x00016dfc                WatchdogResetEnable
 .text.WatchdogResetDisable
                0x00016e20       0x24 ./driverlib/watchdog.o
                0x00016e20                WatchdogResetDisable
 .text.WatchdogLock
                0x00016e44       0x1c ./driverlib/watchdog.o
                0x00016e44                WatchdogLock
 .text.WatchdogUnlock
                0x00016e60       0x20 ./driverlib/watchdog.o
                0x00016e60                WatchdogUnlock
 .text.WatchdogLockState
                0x00016e80       0x28 ./driverlib/watchdog.o
                0x00016e80                WatchdogLockState
 .text.WatchdogReloadSet
                0x00016ea8       0x1c ./driverlib/watchdog.o
                0x00016ea8                WatchdogReloadSet
 .text.WatchdogReloadGet
                0x00016ec4       0x18 ./driverlib/watchdog.o
                0x00016ec4                WatchdogReloadGet
 .text.WatchdogValueGet
                0x00016edc       0x1c ./driverlib/watchdog.o
                0x00016edc                WatchdogValueGet
 .text.WatchdogIntRegister
                0x00016ef8       0x20 ./driverlib/watchdog.o
                0x00016ef8                WatchdogIntRegister
 .text.WatchdogIntUnregister
                0x00016f18       0x1c ./driverlib/watchdog.o
                0x00016f18                WatchdogIntUnregister
 .text.WatchdogIntEnable
                0x00016f34       0x24 ./driverlib/watchdog.o
                0x00016f34                WatchdogIntEnable
 .text.WatchdogIntStatus
                0x00016f58       0x2c ./driverlib/watchdog.o
                0x00016f58                WatchdogIntStatus
 .text.WatchdogIntClear
                0x00016f84       0x1c ./driverlib/watchdog.o
                0x00016f84                WatchdogIntClear
 .text.WatchdogIntTypeSet
                0x00016fa0       0x28 ./driverlib/watchdog.o
                0x00016fa0                WatchdogIntTypeSet
 .text.WatchdogStallEnable
                0x00016fc8       0x28 ./driverlib/watchdog.o
                0x00016fc8                WatchdogStallEnable
 .text.WatchdogStallDisable
                0x00016ff0       0x28 ./driverlib/watchdog.o
                0x00016ff0                WatchdogStallDisable
 .text.OSSchedule
                0x00017018       0x40 ./brtos/BRTOS.o
                0x00017018                OSSchedule
 .text.OSGetTickCount
                0x00017058       0x2c ./brtos/BRTOS.o
                0x00017058                OSGetTickCount
 .text.OSGetCount
                0x00017084       0x18 ./brtos/BRTOS.o
                0x00017084                OSGetCount
 .text.OSIncCounter
                0x0001709c       0x2c ./brtos/BRTOS.o
                0x0001709c                OSIncCounter
 .text.OSDelayTask
                0x000170c8      0x110 ./brtos/BRTOS.o
                0x000170c8                OSDelayTask
 .text.OSDelayTaskHMSM
                0x000171d8       0xd0 ./brtos/BRTOS.o
                0x000171d8                OSDelayTaskHMSM
 .text.OS_TICK_HANDLER
                0x000172a8      0x138 ./brtos/BRTOS.o
                0x000172a8                OS_TICK_HANDLER
 .text.BRTOSStart
                0x000173e0       0x68 ./brtos/BRTOS.o
                0x000173e0                BRTOSStart
 .text.PreInstallTasks
                0x00017448       0xa4 ./brtos/BRTOS.o
                0x00017448                PreInstallTasks
 .text.OSBlockPriority
                0x000174ec       0x94 ./brtos/BRTOS.o
                0x000174ec                OSBlockPriority
 .text.OSUnBlockPriority
                0x00017580       0x68 ./brtos/BRTOS.o
                0x00017580                OSUnBlockPriority
 .text.OSBlockTask
                0x000175e8       0xc4 ./brtos/BRTOS.o
                0x000175e8                OSBlockTask
 .text.OSUnBlockTask
                0x000176ac       0x80 ./brtos/BRTOS.o
                0x000176ac                OSUnBlockTask
 .text.OSBlockMultipleTask
                0x0001772c       0xb8 ./brtos/BRTOS.o
                0x0001772c                OSBlockMultipleTask
 .text.OSUnBlockMultipleTask
                0x000177e4       0xcc ./brtos/BRTOS.o
                0x000177e4                OSUnBlockMultipleTask
 .text.Idle     0x000178b0       0x14 ./brtos/BRTOS.o
                0x000178b0                Idle
 .text.OSInstallTask
                0x000178c4      0x210 ./brtos/BRTOS.o
                0x000178c4                OSInstallTask
 .text.BRTOSInit
                0x00017ad4       0x14 ./brtos/BRTOS.o
                0x00017ad4                BRTOSInit
 .text.initEvents
                0x00017ae8       0xac ./brtos/BRTOS.o
                0x00017ae8                initEvents
 .text.SAScheduler
                0x00017b94       0x24 ./brtos/BRTOS.o
                0x00017b94                SAScheduler
 .text.mem_cpy  0x00017bb8       0x3c ./brtos/OSInfo.o
                0x00017bb8                mem_cpy
 .text.PrintDecimal
                0x00017bf4       0xdc ./brtos/OSInfo.o
                0x00017bf4                PrintDecimal
 .text.OSTaskList
                0x00017cd0      0x37c ./brtos/OSInfo.o
                0x00017cd0                OSTaskList
 .text.OSAvailableMemory
                0x0001804c      0x138 ./brtos/OSInfo.o
                0x0001804c                OSAvailableMemory
 .text.OSUptimeInfo
                0x00018184      0x128 ./brtos/OSInfo.o
                0x00018184                OSUptimeInfo
 .text.OSCPULoad
                0x000182ac       0xfc ./brtos/OSInfo.o
                0x000182ac                OSCPULoad
 .text.OSUpdateTime
                0x000183a8       0x7c ./brtos/OSTime.o
                0x000183a8                OSUpdateTime
 .text.OSUpdateUptime
                0x00018424       0x8c ./brtos/OSTime.o
                0x00018424                OSUpdateUptime
 .text.OSUpdateDate
                0x000184b0       0x80 ./brtos/OSTime.o
                0x000184b0                OSUpdateDate
 .text.OSResetTime
                0x00018530       0x34 ./brtos/OSTime.o
                0x00018530                OSResetTime
 .text.OSResetDate
                0x00018564       0x34 ./brtos/OSTime.o
                0x00018564                OSResetDate
 .text.OSUptime
                0x00018598       0x3c ./brtos/OSTime.o
                0x00018598                OSUptime
 .text.OSUpDate
                0x000185d4       0x2c ./brtos/OSTime.o
                0x000185d4                OSUpDate
 .text.OSUpdateCalendar
                0x00018600      0x150 ./brtos/OSTime.o
                0x00018600                OSUpdateCalendar
 .text.GetCalendar
                0x00018750       0x24 ./brtos/OSTime.o
                0x00018750                GetCalendar
 .text.SetCalendar
                0x00018774       0x24 ./brtos/OSTime.o
                0x00018774                SetCalendar
 .text.Init_Calendar
                0x00018798       0x30 ./brtos/OSTime.o
                0x00018798                Init_Calendar
 .text.OSMboxCreate
                0x000187c8       0xf0 ./brtos/mbox.o
                0x000187c8                OSMboxCreate
 .text.OSMboxDelete
                0x000188b8       0x5c ./brtos/mbox.o
                0x000188b8                OSMboxDelete
 .text.OSMboxPend
                0x00018914      0x22c ./brtos/mbox.o
                0x00018914                OSMboxPend
 .text.OSMboxPost
                0x00018b40       0xb4 ./brtos/mbox.o
                0x00018b40                OSMboxPost
 .text.OSMutexCreate
                0x00018bf4      0x104 ./brtos/mutex.o
                0x00018bf4                OSMutexCreate
 .text.OSMutexDelete
                0x00018cf8       0x68 ./brtos/mutex.o
                0x00018cf8                OSMutexDelete
 .text.OSMutexAcquire
                0x00018d60      0x314 ./brtos/mutex.o
                0x00018d60                OSMutexAcquire
 .text.OSMutexRelease
                0x00019074      0x140 ./brtos/mutex.o
                0x00019074                OSMutexRelease
 .text.OSQueueCreate
                0x000191b4      0x184 ./brtos/queue.o
                0x000191b4                OSQueueCreate
 .text.OSWQueue
                0x00019338       0x70 ./brtos/queue.o
                0x00019338                OSWQueue
 .text.OSRQueue
                0x000193a8       0x6c ./brtos/queue.o
                0x000193a8                OSRQueue
 .text.OSQueueClean
                0x00019414       0x40 ./brtos/queue.o
                0x00019414                OSQueueClean
 .text.OSQueuePend
                0x00019454      0x284 ./brtos/queue.o
                0x00019454                OSQueuePend
 .text.OSQueuePost
                0x000196d8       0xf0 ./brtos/queue.o
                0x000196d8                OSQueuePost
 .text.OSQueue32Create
                0x000197c8       0xcc ./brtos/queue.o
                0x000197c8                OSQueue32Create
 .text.OSWQueue32
                0x00019894       0x70 ./brtos/queue.o
                0x00019894                OSWQueue32
 .text.OSRQueue32
                0x00019904       0x6c ./brtos/queue.o
                0x00019904                OSRQueue32
 .text.OSCleanQueue32
                0x00019970       0x3c ./brtos/queue.o
                0x00019970                OSCleanQueue32
 .text.OSSemCreate
                0x000199ac       0xbc ./brtos/semaphore.o
                0x000199ac                OSSemCreate
 .text.OSSemDelete
                0x00019a68       0x58 ./brtos/semaphore.o
                0x00019a68                OSSemDelete
 .text.OSSemPend
                0x00019ac0      0x214 ./brtos/semaphore.o
                0x00019ac0                OSSemPend
 .text.OSSemPost
                0x00019cd4       0xb8 ./brtos/semaphore.o
                0x00019cd4                OSSemPost
 .text.Subir    0x00019d8c       0x78 ./brtos/stimer.o
 .text.Descer   0x00019e04       0xbc ./brtos/stimer.o
 .text.BRTOS_TimerTaskInit
                0x00019ec0       0x80 ./brtos/stimer.o
 .text.BRTOS_TimerTaskSleep
                0x00019f40       0xbc ./brtos/stimer.o
 .text.BRTOSTimerTask
                0x00019ffc      0x1d8 ./brtos/stimer.o
                0x00019ffc                BRTOSTimerTask
 .text.OSTimerInit
                0x0001a1d4       0x38 ./brtos/stimer.o
                0x0001a1d4                OSTimerInit
 .text.OSTimerSet
                0x0001a20c      0x1c4 ./brtos/stimer.o
                0x0001a20c                OSTimerSet
 .text.OSTimerGet
                0x0001a3d0       0x7c ./brtos/stimer.o
                0x0001a3d0                OSTimerGet
 .text.OSTimerStart
                0x0001a44c      0x148 ./brtos/stimer.o
                0x0001a44c                OSTimerStart
 .text.OSTimerStop
                0x0001a594      0x110 ./brtos/stimer.o
                0x0001a594                OSTimerStop
 .text.usb_skipp_space
                0x0001a6a4       0x38 ./USB/cdc/usb_terminal.o
                0x0001a6a4                usb_skipp_space
 .text.usb_find_word
                0x0001a6dc       0x44 ./USB/cdc/usb_terminal.o
                0x0001a6dc                usb_find_word
 .text.usb_cmp_str
                0x0001a720       0x6c ./USB/cdc/usb_terminal.o
                0x0001a720                usb_cmp_str
 .text.usb_cmd_help
                0x0001a78c       0xac ./USB/cdc/usb_terminal.o
 .text.usb_print_prompt
                0x0001a838       0x10 ./USB/cdc/usb_terminal.o
 .text.usb_find_command
                0x0001a848       0x50 ./USB/cdc/usb_terminal.o
 .text.usb_terminal_init
                0x0001a898       0x3c ./USB/cdc/usb_terminal.o
                0x0001a898                usb_terminal_init
 .text.usb_terminal_process
                0x0001a8d4      0x21c ./USB/cdc/usb_terminal.o
                0x0001a8d4                usb_terminal_process
 .text.SetSilentMode
                0x0001aaf0       0x2c ./USB/cdc/usb_terminal.o
                0x0001aaf0                SetSilentMode
 .text.TerminalBackup
                0x0001ab1c       0x54 ./USB/cdc/usb_terminal.o
                0x0001ab1c                TerminalBackup
 .text.usb_terminal_add_cmd
                0x0001ab70       0x44 ./USB/cdc/usb_terminal.o
                0x0001ab70                usb_terminal_add_cmd
 .text.usb_terminal_delete_cmd
                0x0001abb4       0x84 ./USB/cdc/usb_terminal.o
                0x0001abb4                usb_terminal_delete_cmd
 .text.usb_cmd_ver
                0x0001ac38       0x2c ./USB/cdc/usb_terminal_commands.o
                0x0001ac38                usb_cmd_ver
 .text.usb_cmd_top
                0x0001ac64       0x64 ./USB/cdc/usb_terminal_commands.o
                0x0001ac64                usb_cmd_top
 .text.cmd_echo
                0x0001acc8       0x20 ./USB/cdc/usb_terminal_commands.o
                0x0001acc8                cmd_echo
 .text.echo     0x0001ace8      0x128 ./USB/cdc/usb_terminal_commands.o
                0x0001ace8                echo
 .text.Reason_of_Reset
                0x0001ae10       0xac ./USB/cdc/usb_terminal_commands.o
                0x0001ae10                Reason_of_Reset
 .text.usb_cmd_rst
                0x0001aebc       0x1c ./USB/cdc/usb_terminal_commands.o
                0x0001aebc                usb_cmd_rst
 .text.SetControlLineState
                0x0001aed8       0x14 ./USB/cdc/virtual_com.o
                0x0001aed8                SetControlLineState
 .text.SetLineCoding
                0x0001aeec       0xcc ./USB/cdc/virtual_com.o
                0x0001aeec                SetLineCoding
 .text.GetLineCoding
                0x0001afb8       0xd8 ./USB/cdc/virtual_com.o
                0x0001afb8                GetLineCoding
 .text.SendBreak
                0x0001b090       0x14 ./USB/cdc/virtual_com.o
                0x0001b090                SendBreak
 .text.ControlHandler
                0x0001b0a4      0x128 ./USB/cdc/virtual_com.o
                0x0001b0a4                ControlHandler
 .text.TxHandler
                0x0001b1cc       0x28 ./USB/cdc/virtual_com.o
                0x0001b1cc                TxHandler
 .text.USBUARTPrimeTransmit
                0x0001b1f4       0x54 ./USB/cdc/virtual_com.o
                0x0001b1f4                USBUARTPrimeTransmit
 .text.RxHandler
                0x0001b248       0x38 ./USB/cdc/virtual_com.o
                0x0001b248                RxHandler
 .text.putchar_usb
                0x0001b280       0x2c ./USB/cdc/virtual_com.o
                0x0001b280                putchar_usb
 .text.printf_usb
                0x0001b2ac       0x6c ./USB/cdc/virtual_com.o
                0x0001b2ac                printf_usb
 .text.Virtual_Comm_Init
                0x0001b318       0x20 ./USB/cdc/virtual_com.o
                0x0001b318                Virtual_Comm_Init
 .text.exit     0x0001b338       0x20 c:/ti/ccsv6/tools/compiler/gcc-arm-none-eabi-4_8-2014q3/bin/../lib/gcc/arm-none-eabi/4.8.4/../../../../arm-none-eabi/lib/armv7e-m/fpu\libc.a(lib_a-exit.o)
                0x0001b338                exit
 .text.__libc_init_array
                0x0001b358       0x50 c:/ti/ccsv6/tools/compiler/gcc-arm-none-eabi-4_8-2014q3/bin/../lib/gcc/arm-none-eabi/4.8.4/../../../../arm-none-eabi/lib/armv7e-m/fpu\libc.a(lib_a-init.o)
                0x0001b358                __libc_init_array
 .text.memset   0x0001b3a8       0x94 c:/ti/ccsv6/tools/compiler/gcc-arm-none-eabi-4_8-2014q3/bin/../lib/gcc/arm-none-eabi/4.8.4/../../../../arm-none-eabi/lib/armv7e-m/fpu\libc.a(lib_a-memset.o)
                0x0001b3a8                memset
 .text.startup.register_fini
                0x0001b43c       0x14 c:/ti/ccsv6/tools/compiler/gcc-arm-none-eabi-4_8-2014q3/bin/../lib/gcc/arm-none-eabi/4.8.4/../../../../arm-none-eabi/lib/armv7e-m/fpu\libc.a(lib_a-__call_atexit.o)
 .text.__call_exitprocs
                0x0001b450       0xf0 c:/ti/ccsv6/tools/compiler/gcc-arm-none-eabi-4_8-2014q3/bin/../lib/gcc/arm-none-eabi/4.8.4/../../../../arm-none-eabi/lib/armv7e-m/fpu\libc.a(lib_a-__call_atexit.o)
                0x0001b450                __call_exitprocs
 .text.atexit   0x0001b540        0xc c:/ti/ccsv6/tools/compiler/gcc-arm-none-eabi-4_8-2014q3/bin/../lib/gcc/arm-none-eabi/4.8.4/../../../../arm-none-eabi/lib/armv7e-m/fpu\libc.a(lib_a-atexit.o)
                0x0001b540                atexit
 .text.__libc_fini_array
                0x0001b54c       0x30 c:/ti/ccsv6/tools/compiler/gcc-arm-none-eabi-4_8-2014q3/bin/../lib/gcc/arm-none-eabi/4.8.4/../../../../arm-none-eabi/lib/armv7e-m/fpu\libc.a(lib_a-fini.o)
                0x0001b54c                __libc_fini_array
 .text.__register_exitproc
                0x0001b57c       0xa8 c:/ti/ccsv6/tools/compiler/gcc-arm-none-eabi-4_8-2014q3/bin/../lib/gcc/arm-none-eabi/4.8.4/../../../../arm-none-eabi/lib/armv7e-m/fpu\libc.a(lib_a-__atexit.o)
                0x0001b57c                __register_exitproc
 .text._exit    0x0001b624        0x4 c:/ti/ccsv6/tools/compiler/gcc-arm-none-eabi-4_8-2014q3/bin/../lib/gcc/arm-none-eabi/4.8.4/../../../../arm-none-eabi/lib/armv7e-m/fpu\libnosys.a(_exit.o)
                0x0001b624                _exit
                0x0001b628                . = ALIGN (0x4)
 *(.ctors)
                0x0001b628                . = ALIGN (0x4)
 *(.dtors)
                0x0001b628                . = ALIGN (0x4)
                0x0001b628                __init_array_start = .
 *(.init_array*)
 .init_array    0x0001b628        0x4 c:/ti/ccsv6/tools/compiler/gcc-arm-none-eabi-4_8-2014q3/bin/../lib/gcc/arm-none-eabi/4.8.4/armv7e-m/fpu/crtbegin.o
 .init_array.00000
                0x0001b62c        0x4 c:/ti/ccsv6/tools/compiler/gcc-arm-none-eabi-4_8-2014q3/bin/../lib/gcc/arm-none-eabi/4.8.4/../../../../arm-none-eabi/lib/armv7e-m/fpu\libc.a(lib_a-__call_atexit.o)
                0x0001b630                __init_array_end = .
 *(.init)
 .init          0x0001b630        0x4 c:/ti/ccsv6/tools/compiler/gcc-arm-none-eabi-4_8-2014q3/bin/../lib/gcc/arm-none-eabi/4.8.4/armv7e-m/fpu/crti.o
                0x0001b630                _init
 .init          0x0001b634        0x8 c:/ti/ccsv6/tools/compiler/gcc-arm-none-eabi-4_8-2014q3/bin/../lib/gcc/arm-none-eabi/4.8.4/armv7e-m/fpu/crtn.o
 *(.fini*)
 .fini          0x0001b63c        0x4 c:/ti/ccsv6/tools/compiler/gcc-arm-none-eabi-4_8-2014q3/bin/../lib/gcc/arm-none-eabi/4.8.4/armv7e-m/fpu/crti.o
                0x0001b63c                _fini
 .fini_array    0x0001b640        0x4 c:/ti/ccsv6/tools/compiler/gcc-arm-none-eabi-4_8-2014q3/bin/../lib/gcc/arm-none-eabi/4.8.4/armv7e-m/fpu/crtbegin.o
 .fini          0x0001b644        0x8 c:/ti/ccsv6/tools/compiler/gcc-arm-none-eabi-4_8-2014q3/bin/../lib/gcc/arm-none-eabi/4.8.4/armv7e-m/fpu/crtn.o
                0x0001b64c                PROVIDE (__etext, .)
                0x0001b64c                PROVIDE (_etext, .)
                0x0001b64c                PROVIDE (etext, .)

.glue_7         0x0001b64c        0x0
 .glue_7        0x00000000        0x0 linker stubs

.glue_7t        0x0001b64c        0x0
 .glue_7t       0x00000000        0x0 linker stubs

.vfp11_veneer   0x0001b64c        0x0
 .vfp11_veneer  0x00000000        0x0 linker stubs

.v4_bx          0x0001b64c        0x0
 .v4_bx         0x00000000        0x0 linker stubs

.iplt           0x0001b64c        0x0
 .iplt          0x00000000        0x0 c:/ti/ccsv6/tools/compiler/gcc-arm-none-eabi-4_8-2014q3/bin/../lib/gcc/arm-none-eabi/4.8.4/armv7e-m/fpu/crtbegin.o

.rodata         0x0001b64c     0x13d8
 *(.rodata)
 .rodata        0x0001b64c       0x5c ./main.o
 .rodata        0x0001b6a8       0x74 ./tarefas.o
 .rodata        0x0001b71c       0x1c ./brtos/BRTOS.o
 .rodata        0x0001b738      0x164 ./brtos/OSInfo.o
 .rodata        0x0001b89c       0x14 ./brtos/stimer.o
 .rodata        0x0001b8b0       0x78 ./USB/cdc/usb_terminal.o
 .rodata        0x0001b928      0x14c ./USB/cdc/usb_terminal_commands.o
 .rodata        0x0001ba74       0x34 ./USB/cdc/virtual_com.o
 *(.rodata*)
 .rodata.g_pui8KeyBoardMap
                0x0001baa8      0x200 ./usblib/usbkeyboardmap.o
                0x0001baa8                g_pui8KeyBoardMap
 .rodata.g_sUSKeyboardMap
                0x0001bca8      0x108 ./usblib/usbkeyboardmap.o
                0x0001bca8                g_sUSKeyboardMap
 .rodata.g_sUSBHostAudioClassDriver
                0x0001bdb0       0x10 ./usblib/host/usbhaudio.o
                0x0001bdb0                g_sUSBHostAudioClassDriver
 .rodata.g_sUSBHIDClassDriver
                0x0001bdc0       0x10 ./usblib/host/usbhhid.o
                0x0001bdc0                g_sUSBHIDClassDriver
 .rodata.g_sUSBHubClassDriver
                0x0001bdd0       0x10 ./usblib/host/usbhhub.o
                0x0001bdd0                g_sUSBHubClassDriver
 .rodata.g_sUSBHostMSCClassDriver
                0x0001bde0       0x10 ./usblib/host/usbhmsc.o
                0x0001bde0                g_sUSBHostMSCClassDriver
 .rodata.g_sIADAudioConfigSection
                0x0001bdf0        0x8 ./usblib/device/usbdaudio.o
                0x0001bdf0                g_sIADAudioConfigSection
 .rodata.g_pui8AudioControlInterface
                0x0001bdf8       0x34 ./usblib/device/usbdaudio.o
                0x0001bdf8                g_pui8AudioControlInterface
 .rodata.g_pui8AudioStreamInterface
                0x0001be2c       0x34 ./usblib/device/usbdaudio.o
                0x0001be2c                g_pui8AudioStreamInterface
 .rodata.g_sAudioConfigSection
                0x0001be60        0x8 ./usblib/device/usbdaudio.o
                0x0001be60                g_sAudioConfigSection
 .rodata.g_sAudioStreamInterfaceSection
                0x0001be68        0x8 ./usblib/device/usbdaudio.o
                0x0001be68                g_sAudioStreamInterfaceSection
 .rodata.g_sAudioControlInterfaceSection
                0x0001be70        0x8 ./usblib/device/usbdaudio.o
                0x0001be70                g_sAudioControlInterfaceSection
 .rodata.g_sAudioConfigHeader
                0x0001be78        0x8 ./usblib/device/usbdaudio.o
                0x0001be78                g_sAudioConfigHeader
 .rodata.g_ppAudioConfigDescriptors
                0x0001be80        0x4 ./usblib/device/usbdaudio.o
                0x0001be80                g_ppAudioConfigDescriptors
 .rodata.g_sAudioHandlers
                0x0001be84       0x30 ./usblib/device/usbdaudio.o
 .rodata.g_pui8BulkInterface
                0x0001beb4       0x18 ./usblib/device/usbdbulk.o
                0x0001beb4                g_pui8BulkInterface
 .rodata.g_sBulkConfigSection
                0x0001becc        0x8 ./usblib/device/usbdbulk.o
                0x0001becc                g_sBulkConfigSection
 .rodata.g_sBulkInterfaceSection
                0x0001bed4        0x8 ./usblib/device/usbdbulk.o
                0x0001bed4                g_sBulkInterfaceSection
 .rodata.g_sBulkConfigHeader
                0x0001bedc        0x8 ./usblib/device/usbdbulk.o
                0x0001bedc                g_sBulkConfigHeader
 .rodata.g_ppBulkConfigDescriptors
                0x0001bee4        0x4 ./usblib/device/usbdbulk.o
                0x0001bee4                g_ppBulkConfigDescriptors
 .rodata.g_sBulkHandlers
                0x0001bee8       0x30 ./usblib/device/usbdbulk.o
                0x0001bee8                g_sBulkHandlers
 .rodata.g_sCDCSerConfigSection
                0x0001bf18        0x8 ./usblib/device/usbdcdc.o
                0x0001bf18                g_sCDCSerConfigSection
 .rodata.g_sIADSerConfigSection
                0x0001bf20        0x8 ./usblib/device/usbdcdc.o
                0x0001bf20                g_sIADSerConfigSection
 .rodata.g_pui8CDCSerCommInterface
                0x0001bf28       0x24 ./usblib/device/usbdcdc.o
                0x0001bf28                g_pui8CDCSerCommInterface
 .rodata.g_sCDCSerCommInterfaceSection
                0x0001bf4c        0x8 ./usblib/device/usbdcdc.o
                0x0001bf4c                g_sCDCSerCommInterfaceSection
 .rodata.g_pui8CDCSerDataInterface
                0x0001bf54       0x18 ./usblib/device/usbdcdc.o
                0x0001bf54                g_pui8CDCSerDataInterface
 .rodata.g_sCDCSerDataInterfaceSection
                0x0001bf6c        0x8 ./usblib/device/usbdcdc.o
                0x0001bf6c                g_sCDCSerDataInterfaceSection
 .rodata.g_sCDCSerConfigHeader
                0x0001bf74        0x8 ./usblib/device/usbdcdc.o
                0x0001bf74                g_sCDCSerConfigHeader
 .rodata.g_sCDCCompSerConfigHeader
                0x0001bf7c        0x8 ./usblib/device/usbdcdc.o
                0x0001bf7c                g_sCDCCompSerConfigHeader
 .rodata.g_ppCDCSerConfigDescriptors
                0x0001bf84        0x4 ./usblib/device/usbdcdc.o
                0x0001bf84                g_ppCDCSerConfigDescriptors
 .rodata.g_pCDCCompSerConfigDescriptors
                0x0001bf88        0x4 ./usblib/device/usbdcdc.o
                0x0001bf88                g_pCDCCompSerConfigDescriptors
 .rodata.g_sCDCHandlers
                0x0001bf8c       0x30 ./usblib/device/usbdcdc.o
                0x0001bf8c                g_sCDCHandlers
 .rodata.g_pui8CompConfigDescriptor
                0x0001bfbc        0xc ./usblib/device/usbdcomp.o
 .rodata.g_sCompHandlers
                0x0001bfc8       0x30 ./usblib/device/usbdcomp.o
                0x0001bfc8                g_sCompHandlers
 .rodata.g_pui8DFUDeviceDescriptor
                0x0001bff8       0x14 ./usblib/device/usbddfu-rt.o
                0x0001bff8                g_pui8DFUDeviceDescriptor
 .rodata.g_sDFUConfigSection
                0x0001c00c        0x8 ./usblib/device/usbddfu-rt.o
                0x0001c00c                g_sDFUConfigSection
 .rodata.g_sDFUInterfaceSection
                0x0001c014        0x8 ./usblib/device/usbddfu-rt.o
                0x0001c014                g_sDFUInterfaceSection
 .rodata.g_sDFUFunctionalDescSection
                0x0001c01c        0x8 ./usblib/device/usbddfu-rt.o
                0x0001c01c                g_sDFUFunctionalDescSection
 .rodata.g_ppsDFUConfigDescriptors
                0x0001c024        0x4 ./usblib/device/usbddfu-rt.o
                0x0001c024                g_ppsDFUConfigDescriptors
 .rodata.g_sDFUHandlers
                0x0001c028       0x30 ./usblib/device/usbddfu-rt.o
 .rodata.g_psUSBDStdRequests
                0x0001c058       0x34 ./usblib/device/usbdenum.o
 .rodata.g_sHIDHandlers
                0x0001c08c       0x30 ./usblib/device/usbdhid.o
                0x0001c08c                g_sHIDHandlers
 .rodata.g_pui8HIDInEndpoint
                0x0001c0bc        0x8 ./usblib/device/usbdhidkeyb.o
 .rodata.g_pui8HIDOutEndpoint
                0x0001c0c4        0x8 ./usblib/device/usbdhidkeyb.o
 .rodata.g_pui8KeybReportDescriptor
                0x0001c0cc       0x40 ./usblib/device/usbdhidkeyb.o
 .rodata.g_sKeybHIDDescriptor
                0x0001c10c        0xc ./usblib/device/usbdhidkeyb.o
 .rodata.g_sHIDConfigSection
                0x0001c118        0x8 ./usblib/device/usbdhidkeyb.o
 .rodata.g_sHIDInterfaceSection
                0x0001c120        0x8 ./usblib/device/usbdhidkeyb.o
 .rodata.g_sHIDInEndpointSection
                0x0001c128        0x8 ./usblib/device/usbdhidkeyb.o
 .rodata.g_sHIDOutEndpointSection
                0x0001c130        0x8 ./usblib/device/usbdhidkeyb.o
 .rodata.g_ppsHIDConfigDescriptors
                0x0001c138        0x4 ./usblib/device/usbdhidkeyb.o
 .rodata.g_pui8KeybClassDescriptors
                0x0001c13c        0x4 ./usblib/device/usbdhidkeyb.o
 .rodata.g_pui8HIDInEndpoint
                0x0001c140        0x8 ./usblib/device/usbdhidmouse.o
                0x0001c140                g_pui8HIDInEndpoint
 .rodata.g_pui8MouseReportDescriptor
                0x0001c148       0x38 ./usblib/device/usbdhidmouse.o
 .rodata.g_sMouseHIDDescriptor
                0x0001c180        0xc ./usblib/device/usbdhidmouse.o
 .rodata.g_sHIDConfigSection
                0x0001c18c        0x8 ./usblib/device/usbdhidmouse.o
                0x0001c18c                g_sHIDConfigSection
 .rodata.g_sHIDInterfaceSection
                0x0001c194        0x8 ./usblib/device/usbdhidmouse.o
                0x0001c194                g_sHIDInterfaceSection
 .rodata.g_sHIDInEndpointSection
                0x0001c19c        0x8 ./usblib/device/usbdhidmouse.o
                0x0001c19c                g_sHIDInEndpointSection
 .rodata.g_ppsHIDConfigDescriptors
                0x0001c1a4        0x4 ./usblib/device/usbdhidmouse.o
                0x0001c1a4                g_ppsHIDConfigDescriptors
 .rodata.g_pui8MouseClassDescriptors
                0x0001c1a8        0x4 ./usblib/device/usbdhidmouse.o
 .rodata.g_pui8MSCInterface
                0x0001c1ac       0x18 ./usblib/device/usbdmsc.o
                0x0001c1ac                g_pui8MSCInterface
 .rodata.g_sMSCConfigSection
                0x0001c1c4        0x8 ./usblib/device/usbdmsc.o
                0x0001c1c4                g_sMSCConfigSection
 .rodata.g_sMSCInterfaceSection
                0x0001c1cc        0x8 ./usblib/device/usbdmsc.o
                0x0001c1cc                g_sMSCInterfaceSection
 .rodata.g_sMSCConfigHeader
                0x0001c1d4        0x8 ./usblib/device/usbdmsc.o
                0x0001c1d4                g_sMSCConfigHeader
 .rodata.g_ppsMSCConfigDescriptors
                0x0001c1dc        0x4 ./usblib/device/usbdmsc.o
                0x0001c1dc                g_ppsMSCConfigDescriptors
 .rodata.g_sMSCHandlers
                0x0001c1e0       0x30 ./usblib/device/usbdmsc.o
                0x0001c1e0                g_sMSCHandlers
 .rodata.ui8MaxLun.5128
                0x0001c210        0x1 ./usblib/device/usbdmsc.o
 *fill*         0x0001c211        0x3 
 .rodata.g_ppui32GPIOIntMapBlizzard
                0x0001c214       0xc0 ./driverlib/gpio.o
 .rodata.g_ui32GPIOIntMapBlizzardRows
                0x0001c2d4        0x4 ./driverlib/gpio.o
 .rodata.g_ppui32GPIOIntMapSnowflake
                0x0001c2d8       0xc0 ./driverlib/gpio.o
 .rodata.g_ui32GPIOIntMapSnowflakeRows
                0x0001c398        0x4 ./driverlib/gpio.o
 .rodata.g_pui32GPIOBaseAddrs
                0x0001c39c       0x90 ./driverlib/gpio.o
 .rodata.g_pui32Priority
                0x0001c42c       0x20 ./driverlib/interrupt.o
 .rodata.g_pui32Regs
                0x0001c44c       0x9c ./driverlib/interrupt.o
 .rodata.g_pui32EnRegs
                0x0001c4e8       0x14 ./driverlib/interrupt.o
 .rodata.g_pui32Dii16Regs
                0x0001c4fc       0x14 ./driverlib/interrupt.o
 .rodata.g_pui32PendRegs
                0x0001c510       0x14 ./driverlib/interrupt.o
 .rodata.g_pui32UnpendRegs
                0x0001c524       0x14 ./driverlib/interrupt.o
 .rodata.g_pui32Xtals
                0x0001c538       0x6c ./driverlib/sysctl.o
 .rodata.g_pppui32XTALtoVCO
                0x0001c5a4      0x120 ./driverlib/sysctl.o
 .rodata.g_sXTALtoMEMTIM
                0x0001c6c4       0x30 ./driverlib/sysctl.o
 .rodata.g_pui32VCOFrequencies
                0x0001c6f4        0x8 ./driverlib/sysctl.o
 .rodata.g_ppui32TimerIntMap
                0x0001c6fc       0x60 ./driverlib/timer.o
 .rodata.g_ui8TimerIntMapRows
                0x0001c75c        0x4 ./driverlib/timer.o
 .rodata.g_ppui32TimerIntMapSnowflake
                0x0001c760       0x40 ./driverlib/timer.o
 .rodata.g_ui8TimerIntMapRowsSnowflake
                0x0001c7a0        0x4 ./driverlib/timer.o
 .rodata.g_ppui32UARTIntMap
                0x0001c7a4       0x40 ./driverlib/uart.o
 .rodata.g_ui8UARTIntMapRows
                0x0001c7e4        0x4 ./driverlib/uart.o
 .rodata.g_ppui32UARTIntMapSnowflake
                0x0001c7e8       0x40 ./driverlib/uart.o
 .rodata.g_ui8UARTIntMapRowsSnowflake
                0x0001c828        0x4 ./driverlib/uart.o
 .rodata.PriorityMask
                0x0001c82c       0x80 ./brtos/BRTOS.o
                0x0001c82c                PriorityMask
 .rodata.MonthLength
                0x0001c8ac       0x10 ./brtos/OSTime.o
 .rodata.g_pui8LangDescriptor
                0x0001c8bc        0x4 ./USB/usb_serial_structs.o
                0x0001c8bc                g_pui8LangDescriptor
 .rodata.g_pui8ManufacturerString
                0x0001c8c0       0x24 ./USB/usb_serial_structs.o
                0x0001c8c0                g_pui8ManufacturerString
 .rodata.g_pui8ProductString
                0x0001c8e4       0x24 ./USB/usb_serial_structs.o
                0x0001c8e4                g_pui8ProductString
 .rodata.g_pui8SerialNumberString
                0x0001c908       0x14 ./USB/usb_serial_structs.o
                0x0001c908                g_pui8SerialNumberString
 .rodata.g_pui8ControlInterfaceString
                0x0001c91c       0x2c ./USB/usb_serial_structs.o
                0x0001c91c                g_pui8ControlInterfaceString
 .rodata.g_pui8ConfigString
                0x0001c948       0x38 ./USB/usb_serial_structs.o
                0x0001c948                g_pui8ConfigString
 .rodata.g_ppui8StringDescriptors
                0x0001c980       0x18 ./USB/usb_serial_structs.o
                0x0001c980                g_ppui8StringDescriptors
 .rodata.g_sRxBuffer
                0x0001c998       0x24 ./USB/usb_serial_structs.o
                0x0001c998                g_sRxBuffer
 .rodata.g_sTxBuffer
                0x0001c9bc       0x24 ./USB/usb_serial_structs.o
                0x0001c9bc                g_sTxBuffer
 .rodata.usb_help_cmd
                0x0001c9e0        0xc ./USB/cdc/usb_terminal.o
 .rodata.usb_ver_cmd
                0x0001c9ec        0xc ./USB/cdc/usb_terminal_commands.o
                0x0001c9ec                usb_ver_cmd
 .rodata.usb_top_cmd
                0x0001c9f8        0xc ./USB/cdc/usb_terminal_commands.o
                0x0001c9f8                usb_top_cmd
 .rodata.echo_cmd
                0x0001ca04        0xc ./USB/cdc/usb_terminal_commands.o
                0x0001ca04                echo_cmd
 .rodata.usb_rst_cmd
                0x0001ca10        0xc ./USB/cdc/usb_terminal_commands.o
                0x0001ca10                usb_rst_cmd
 .rodata.str1.4
                0x0001ca1c        0x4 c:/ti/ccsv6/tools/compiler/gcc-arm-none-eabi-4_8-2014q3/bin/../lib/gcc/arm-none-eabi/4.8.4/../../../../arm-none-eabi/lib/armv7e-m/fpu\libc.a(lib_a-impure.o)
 .rodata._global_impure_ptr
                0x0001ca20        0x4 c:/ti/ccsv6/tools/compiler/gcc-arm-none-eabi-4_8-2014q3/bin/../lib/gcc/arm-none-eabi/4.8.4/../../../../arm-none-eabi/lib/armv7e-m/fpu\libc.a(lib_a-impure.o)
                0x0001ca20                _global_impure_ptr

.eh_frame       0x0001ca24        0x4
 .eh_frame      0x0001ca24        0x0 c:/ti/ccsv6/tools/compiler/gcc-arm-none-eabi-4_8-2014q3/bin/../lib/gcc/arm-none-eabi/4.8.4/armv7e-m/fpu/crtbegin.o
 .eh_frame      0x0001ca24        0x4 c:/ti/ccsv6/tools/compiler/gcc-arm-none-eabi-4_8-2014q3/bin/../lib/gcc/arm-none-eabi/4.8.4/armv7e-m/fpu/crtend.o

.data           0x20000000      0x65c load address 0x0001ca28
                0x0001ca28                __data_load__ = LOADADDR (.data)
                0x20000000                __data_start__ = .
 *(.data)
 .data          0x20000000        0x0 c:/ti/ccsv6/tools/compiler/gcc-arm-none-eabi-4_8-2014q3/bin/../lib/gcc/arm-none-eabi/4.8.4/armv7e-m/fpu/crti.o
 .data          0x20000000        0x4 c:/ti/ccsv6/tools/compiler/gcc-arm-none-eabi-4_8-2014q3/bin/../lib/gcc/arm-none-eabi/4.8.4/armv7e-m/fpu/crtbegin.o
                0x20000000                __dso_handle
 .data          0x20000004        0x0 c:/ti/ccsv6/tools/compiler/gcc-arm-none-eabi-4_8-2014q3/bin/../lib/gcc/arm-none-eabi/4.8.4/../../../../arm-none-eabi/lib/armv7e-m/fpu/crt0.o
 .data          0x20000004        0x0 ./buttons.o
 .data          0x20000004        0x0 ./main.o
 .data          0x20000004        0x0 ./rgb.o
 .data          0x20000004        0x0 ./tarefas.o
 .data          0x20000004        0x0 ./tm4c123gh6pm_startup_ccs_gcc.o
 .data          0x20000004        0x0 ./usblib/usbbuffer.o
 .data          0x20000004        0x0 ./usblib/usbdesc.o
 .data          0x20000004        0x0 ./usblib/usbdma.o
 .data          0x20000004        0x0 ./usblib/usbkeyboardmap.o
 .data          0x20000004        0x0 ./usblib/usbmode.o
 .data          0x20000004        0x0 ./usblib/usbringbuf.o
 .data          0x20000004        0x0 ./usblib/usbtick.o
 .data          0x20000004        0x0 ./usblib/usbulpi.o
 .data          0x20000004        0x0 ./usblib/host/usbhaudio.o
 .data          0x20000004        0x0 ./usblib/host/usbhhid.o
 .data          0x20000004        0x0 ./usblib/host/usbhhidkeyboard.o
 .data          0x20000004        0x0 ./usblib/host/usbhhidmouse.o
 .data          0x20000004        0x0 ./usblib/host/usbhhub.o
 .data          0x20000004        0x0 ./usblib/host/usbhmsc.o
 .data          0x20000004        0x0 ./usblib/host/usbhostenum.o
 .data          0x20000004        0x0 ./usblib/host/usbhscsi.o
 .data          0x20000004        0x0 ./usblib/device/usbdaudio.o
 .data          0x20000004        0x0 ./usblib/device/usbdbulk.o
 .data          0x20000004        0x0 ./usblib/device/usbdcdc.o
 .data          0x20000004        0x0 ./usblib/device/usbdcdesc.o
 .data          0x20000004        0x0 ./usblib/device/usbdcomp.o
 .data          0x20000004        0x0 ./usblib/device/usbdconfig.o
 .data          0x20000004        0x0 ./usblib/device/usbddfu-rt.o
 .data          0x20000004        0x0 ./usblib/device/usbdenum.o
 .data          0x20000004        0x0 ./usblib/device/usbdhandler.o
 .data          0x20000004        0x0 ./usblib/device/usbdhid.o
 .data          0x20000004        0x0 ./usblib/device/usbdhidkeyb.o
 .data          0x20000004        0x0 ./usblib/device/usbdhidmouse.o
 .data          0x20000004        0x0 ./usblib/device/usbdmsc.o
 .data          0x20000004        0x0 ./hal/HAL.o
 .data          0x20000004        0x0 ./driverlib/cpu.o
 .data          0x20000004        0x0 ./driverlib/fpu.o
 .data          0x20000004        0x0 ./driverlib/gpio.o
 .data          0x20000004        0x0 ./driverlib/interrupt.o
 .data          0x20000004        0x0 ./driverlib/sysctl.o
 .data          0x20000004        0x0 ./driverlib/timer.o
 .data          0x20000004        0x0 ./driverlib/uart.o
 .data          0x20000004        0x0 ./driverlib/usb.o
 .data          0x20000004        0x0 ./driverlib/watchdog.o
 .data          0x20000004        0x0 ./brtos/BRTOS.o
 .data          0x20000004        0x0 ./brtos/OSInfo.o
 .data          0x20000004        0x0 ./brtos/OSTime.o
 .data          0x20000004        0x0 ./brtos/mbox.o
 .data          0x20000004        0x0 ./brtos/mutex.o
 .data          0x20000004        0x0 ./brtos/queue.o
 .data          0x20000004        0x0 ./brtos/semaphore.o
 .data          0x20000004        0x0 ./brtos/stimer.o
 .data          0x20000004        0x0 ./USB/usb_serial_structs.o
 .data          0x20000004        0x0 ./USB/cdc/usb_terminal.o
 .data          0x20000004        0x0 ./USB/cdc/usb_terminal_commands.o
 .data          0x20000004        0x0 ./USB/cdc/virtual_com.o
 .data          0x20000004        0x0 c:/ti/ccsv6/tools/compiler/gcc-arm-none-eabi-4_8-2014q3/bin/../lib/gcc/arm-none-eabi/4.8.4/../../../../arm-none-eabi/lib/armv7e-m/fpu\libc.a(lib_a-exit.o)
 .data          0x20000004        0x0 c:/ti/ccsv6/tools/compiler/gcc-arm-none-eabi-4_8-2014q3/bin/../lib/gcc/arm-none-eabi/4.8.4/../../../../arm-none-eabi/lib/armv7e-m/fpu\libc.a(lib_a-impure.o)
 .data          0x20000004        0x0 c:/ti/ccsv6/tools/compiler/gcc-arm-none-eabi-4_8-2014q3/bin/../lib/gcc/arm-none-eabi/4.8.4/../../../../arm-none-eabi/lib/armv7e-m/fpu\libc.a(lib_a-init.o)
 .data          0x20000004        0x0 c:/ti/ccsv6/tools/compiler/gcc-arm-none-eabi-4_8-2014q3/bin/../lib/gcc/arm-none-eabi/4.8.4/../../../../arm-none-eabi/lib/armv7e-m/fpu\libc.a(lib_a-memset.o)
 .data          0x20000004        0x0 c:/ti/ccsv6/tools/compiler/gcc-arm-none-eabi-4_8-2014q3/bin/../lib/gcc/arm-none-eabi/4.8.4/../../../../arm-none-eabi/lib/armv7e-m/fpu\libc.a(lib_a-__call_atexit.o)
 .data          0x20000004        0x0 c:/ti/ccsv6/tools/compiler/gcc-arm-none-eabi-4_8-2014q3/bin/../lib/gcc/arm-none-eabi/4.8.4/../../../../arm-none-eabi/lib/armv7e-m/fpu\libc.a(lib_a-atexit.o)
 .data          0x20000004        0x0 c:/ti/ccsv6/tools/compiler/gcc-arm-none-eabi-4_8-2014q3/bin/../lib/gcc/arm-none-eabi/4.8.4/../../../../arm-none-eabi/lib/armv7e-m/fpu\libc.a(lib_a-fini.o)
 .data          0x20000004        0x0 c:/ti/ccsv6/tools/compiler/gcc-arm-none-eabi-4_8-2014q3/bin/../lib/gcc/arm-none-eabi/4.8.4/../../../../arm-none-eabi/lib/armv7e-m/fpu\libc.a(lib_a-__atexit.o)
 .data          0x20000004        0x0 c:/ti/ccsv6/tools/compiler/gcc-arm-none-eabi-4_8-2014q3/bin/../lib/gcc/arm-none-eabi/4.8.4/../../../../arm-none-eabi/lib/armv7e-m/fpu\libnosys.a(_exit.o)
 .data          0x20000004        0x0 c:/ti/ccsv6/tools/compiler/gcc-arm-none-eabi-4_8-2014q3/bin/../lib/gcc/arm-none-eabi/4.8.4/armv7e-m/fpu/crtend.o
 .data          0x20000004        0x0 c:/ti/ccsv6/tools/compiler/gcc-arm-none-eabi-4_8-2014q3/bin/../lib/gcc/arm-none-eabi/4.8.4/armv7e-m/fpu/crtn.o
 *(.data*)
 .data.g_ucButtonStates
                0x20000004        0x1 ./buttons.o
 *fill*         0x20000005        0x3 
 .data.g_fIntensity
                0x20000008        0x4 ./rgb.o
 .data.g_iUSBMode
                0x2000000c        0x1 ./usblib/usbmode.o
                0x2000000c                g_iUSBMode
 .data.g_iDualMode
                0x2000000d        0x1 ./usblib/usbmode.o
 *fill*         0x2000000e        0x2 
 .data.g_ui32PowerConfig
                0x20000010        0x4 ./usblib/host/usbhostenum.o
 .data.g_ui32PLLDiv
                0x20000014        0x4 ./usblib/host/usbhostenum.o
 .data.g_pui8AudioDeviceDescriptor
                0x20000018       0x14 ./usblib/device/usbdaudio.o
 .data.g_pui8AudioDescriptor
                0x2000002c        0xc ./usblib/device/usbdaudio.o
 .data.g_pui8IADAudioDescriptor
                0x20000038        0x8 ./usblib/device/usbdaudio.o
                0x20000038                g_pui8IADAudioDescriptor
 .data.g_psAudioSections
                0x20000040       0x10 ./usblib/device/usbdaudio.o
                0x20000040                g_psAudioSections
 .data.g_pui8BulkDeviceDescriptor
                0x20000050       0x14 ./usblib/device/usbdbulk.o
                0x20000050                g_pui8BulkDeviceDescriptor
 .data.g_pui8BulkDescriptor
                0x20000064        0xc ./usblib/device/usbdbulk.o
                0x20000064                g_pui8BulkDescriptor
 .data.g_psBulkSections
                0x20000070        0x8 ./usblib/device/usbdbulk.o
                0x20000070                g_psBulkSections
 .data.g_pui8CDCSerDeviceDescriptor
                0x20000078       0x14 ./usblib/device/usbdcdc.o
                0x20000078                g_pui8CDCSerDeviceDescriptor
 .data.g_pui8CDCSerDescriptor
                0x2000008c        0xc ./usblib/device/usbdcdc.o
                0x2000008c                g_pui8CDCSerDescriptor
 .data.g_pui8IADSerDescriptor
                0x20000098        0x8 ./usblib/device/usbdcdc.o
                0x20000098                g_pui8IADSerDescriptor
 .data.g_psCDCSerSections
                0x200000a0        0xc ./usblib/device/usbdcdc.o
                0x200000a0                g_psCDCSerSections
 .data.g_psCDCCompSerSections
                0x200000ac       0x10 ./usblib/device/usbdcdc.o
                0x200000ac                g_psCDCCompSerSections
 .data.g_pui8CompDeviceDescriptor
                0x200000bc       0x14 ./usblib/device/usbdcomp.o
 .data.g_pui8DFUConfigDescriptor
                0x200000d0        0xc ./usblib/device/usbddfu-rt.o
                0x200000d0                g_pui8DFUConfigDescriptor
 .data.g_pui8DFUInterface
                0x200000dc        0xc ./usblib/device/usbddfu-rt.o
                0x200000dc                g_pui8DFUInterface
 .data.g_pui8DFUFunctionalDesc
                0x200000e8        0xc ./usblib/device/usbddfu-rt.o
                0x200000e8                g_pui8DFUFunctionalDesc
 .data.g_psDFUSections
                0x200000f4        0xc ./usblib/device/usbddfu-rt.o
                0x200000f4                g_psDFUSections
 .data.g_sDFUConfigHeader
                0x20000100        0x8 ./usblib/device/usbddfu-rt.o
                0x20000100                g_sDFUConfigHeader
 .data.g_ui32PLLDiv
                0x20000108        0x4 ./usblib/device/usbdenum.o
 .data.g_pui8HIDDeviceDescriptor
                0x2000010c       0x14 ./usblib/device/usbdhid.o
                0x2000010c                g_pui8HIDDeviceDescriptor
 .data.g_pui8KeybDescriptor
                0x20000120        0xc ./usblib/device/usbdhidkeyb.o
 .data.g_pui8HIDInterface
                0x2000012c        0xc ./usblib/device/usbdhidkeyb.o
 .data.g_sHIDDescriptorSection
                0x20000138        0x8 ./usblib/device/usbdhidkeyb.o
 .data.g_psHIDSections
                0x20000140       0x14 ./usblib/device/usbdhidkeyb.o
 .data.g_sHIDConfigHeader
                0x20000154        0x8 ./usblib/device/usbdhidkeyb.o
 .data.g_pui8MouseDescriptor
                0x2000015c        0xc ./usblib/device/usbdhidmouse.o
                0x2000015c                g_pui8MouseDescriptor
 .data.g_pui8HIDInterface
                0x20000168        0xc ./usblib/device/usbdhidmouse.o
                0x20000168                g_pui8HIDInterface
 .data.g_sHIDDescriptorSection
                0x20000174        0x8 ./usblib/device/usbdhidmouse.o
                0x20000174                g_sHIDDescriptorSection
 .data.g_psHIDSections
                0x2000017c       0x10 ./usblib/device/usbdhidmouse.o
                0x2000017c                g_psHIDSections
 .data.g_sHIDConfigHeader
                0x2000018c        0x8 ./usblib/device/usbdhidmouse.o
                0x2000018c                g_sHIDConfigHeader
 .data.g_pui32BlockSize
                0x20000194        0x4 ./usblib/device/usbdmsc.o
 .data.g_pui8MSCDeviceDescriptor
                0x20000198       0x14 ./usblib/device/usbdmsc.o
 .data.g_pui8MSCDescriptor
                0x200001ac        0xc ./usblib/device/usbdmsc.o
 .data.g_psMSCSections
                0x200001b8        0x8 ./usblib/device/usbdmsc.o
                0x200001b8                g_psMSCSections
 .data.version  0x200001c0        0x4 ./brtos/BRTOS.o
                0x200001c0                version
 .data.StackAddress
                0x200001c4        0x4 ./brtos/BRTOS.o
                0x200001c4                StackAddress
 .data.OSBlockedList
                0x200001c8        0x4 ./brtos/BRTOS.o
                0x200001c8                OSBlockedList
 .data.g_sCDCDevice
                0x200001cc       0x60 ./USB/usb_serial_structs.o
                0x200001cc                g_sCDCDevice
 *fill*         0x2000022c        0x4 
 .data.impure_data
                0x20000230      0x428 c:/ti/ccsv6/tools/compiler/gcc-arm-none-eabi-4_8-2014q3/bin/../lib/gcc/arm-none-eabi/4.8.4/../../../../arm-none-eabi/lib/armv7e-m/fpu\libc.a(lib_a-impure.o)
 .data._impure_ptr
                0x20000658        0x4 c:/ti/ccsv6/tools/compiler/gcc-arm-none-eabi-4_8-2014q3/bin/../lib/gcc/arm-none-eabi/4.8.4/../../../../arm-none-eabi/lib/armv7e-m/fpu\libc.a(lib_a-impure.o)
                0x20000658                _impure_ptr
                0x2000065c                . = ALIGN (0x4)
                0x2000065c                __data_end__ = .

.jcr            0x2000065c        0x4 load address 0x0001d084
 .jcr           0x2000065c        0x0 c:/ti/ccsv6/tools/compiler/gcc-arm-none-eabi-4_8-2014q3/bin/../lib/gcc/arm-none-eabi/4.8.4/armv7e-m/fpu/crtbegin.o
 .jcr           0x2000065c        0x4 c:/ti/ccsv6/tools/compiler/gcc-arm-none-eabi-4_8-2014q3/bin/../lib/gcc/arm-none-eabi/4.8.4/armv7e-m/fpu/crtend.o

.igot.plt       0x20000660        0x0 load address 0x0001d088
 .igot.plt      0x00000000        0x0 c:/ti/ccsv6/tools/compiler/gcc-arm-none-eabi-4_8-2014q3/bin/../lib/gcc/arm-none-eabi/4.8.4/armv7e-m/fpu/crtbegin.o

vtable          0x20000800      0x400 load address 0x0001d088
                0x20000800                PROVIDE (__start_vtable, .)
 vtable         0x20000800      0x400 ./driverlib/interrupt.o
                0x20000c00                PROVIDE (__stop_vtable, .)

.ARM.exidx      0x0001d488        0x8
                0x0001d488                __exidx_start = .
 *(.ARM.exidx* .gnu.linkonce.armexidx.*)
 .ARM.exidx     0x0001d488        0x8 c:/ti/ccsv6/tools/compiler/gcc-arm-none-eabi-4_8-2014q3/bin/../lib/gcc/arm-none-eabi/4.8.4/../../../../arm-none-eabi/lib/armv7e-m/fpu/crt0.o
                0x0001d490                __exidx_end = .

.ARM.extab      0x0001d490        0x0
 *(.ARM.extab* .gnu.linkonce.armextab.*)
 .ARM.extab     0x0001d490        0x0 c:/ti/ccsv6/tools/compiler/gcc-arm-none-eabi-4_8-2014q3/bin/../lib/gcc/arm-none-eabi/4.8.4/../../../../arm-none-eabi/lib/armv7e-m/fpu/crt0.o

.rel.dyn        0x0001d490        0x0
 .rel.iplt      0x00000000        0x0 c:/ti/ccsv6/tools/compiler/gcc-arm-none-eabi-4_8-2014q3/bin/../lib/gcc/arm-none-eabi/4.8.4/armv7e-m/fpu/crtbegin.o

.bss            0x20000c00     0x4cb8
                0x20000c00                __bss_start__ = .
 *(.shbss)
 *(.bss)
 .bss           0x20000c00        0x0 c:/ti/ccsv6/tools/compiler/gcc-arm-none-eabi-4_8-2014q3/bin/../lib/gcc/arm-none-eabi/4.8.4/armv7e-m/fpu/crti.o
 .bss           0x20000c00       0x1c c:/ti/ccsv6/tools/compiler/gcc-arm-none-eabi-4_8-2014q3/bin/../lib/gcc/arm-none-eabi/4.8.4/armv7e-m/fpu/crtbegin.o
 .bss           0x20000c1c        0x0 c:/ti/ccsv6/tools/compiler/gcc-arm-none-eabi-4_8-2014q3/bin/../lib/gcc/arm-none-eabi/4.8.4/../../../../arm-none-eabi/lib/armv7e-m/fpu/crt0.o
 .bss           0x20000c1c        0x0 ./buttons.o
 .bss           0x20000c1c        0x0 ./main.o
 .bss           0x20000c1c        0x0 ./rgb.o
 .bss           0x20000c1c        0x0 ./tarefas.o
 .bss           0x20000c1c        0x0 ./tm4c123gh6pm_startup_ccs_gcc.o
 .bss           0x20000c1c        0x0 ./usblib/usbbuffer.o
 .bss           0x20000c1c        0x0 ./usblib/usbdesc.o
 .bss           0x20000c1c        0x0 ./usblib/usbdma.o
 .bss           0x20000c1c        0x0 ./usblib/usbkeyboardmap.o
 .bss           0x20000c1c        0x0 ./usblib/usbmode.o
 .bss           0x20000c1c        0x0 ./usblib/usbringbuf.o
 .bss           0x20000c1c        0x0 ./usblib/usbtick.o
 .bss           0x20000c1c        0x0 ./usblib/usbulpi.o
 .bss           0x20000c1c        0x0 ./usblib/host/usbhaudio.o
 .bss           0x20000c1c        0x0 ./usblib/host/usbhhid.o
 .bss           0x20000c1c        0x0 ./usblib/host/usbhhidkeyboard.o
 .bss           0x20000c1c        0x0 ./usblib/host/usbhhidmouse.o
 .bss           0x20000c1c        0x0 ./usblib/host/usbhhub.o
 .bss           0x20000c1c        0x0 ./usblib/host/usbhmsc.o
 .bss           0x20000c1c        0x0 ./usblib/host/usbhostenum.o
 .bss           0x20000c1c        0x0 ./usblib/host/usbhscsi.o
 .bss           0x20000c1c        0x0 ./usblib/device/usbdaudio.o
 .bss           0x20000c1c        0x0 ./usblib/device/usbdbulk.o
 .bss           0x20000c1c        0x0 ./usblib/device/usbdcdc.o
 .bss           0x20000c1c        0x0 ./usblib/device/usbdcdesc.o
 .bss           0x20000c1c        0x0 ./usblib/device/usbdcomp.o
 .bss           0x20000c1c        0x0 ./usblib/device/usbdconfig.o
 .bss           0x20000c1c        0x0 ./usblib/device/usbddfu-rt.o
 .bss           0x20000c1c        0x0 ./usblib/device/usbdenum.o
 .bss           0x20000c1c        0x0 ./usblib/device/usbdhandler.o
 .bss           0x20000c1c        0x0 ./usblib/device/usbdhid.o
 .bss           0x20000c1c        0x0 ./usblib/device/usbdhidkeyb.o
 .bss           0x20000c1c        0x0 ./usblib/device/usbdhidmouse.o
 .bss           0x20000c1c        0x0 ./usblib/device/usbdmsc.o
 .bss           0x20000c1c        0x0 ./hal/HAL.o
 .bss           0x20000c1c        0x0 ./driverlib/cpu.o
 .bss           0x20000c1c        0x0 ./driverlib/fpu.o
 .bss           0x20000c1c        0x0 ./driverlib/gpio.o
 .bss           0x20000c1c        0x0 ./driverlib/interrupt.o
 .bss           0x20000c1c        0x0 ./driverlib/sysctl.o
 .bss           0x20000c1c        0x0 ./driverlib/timer.o
 .bss           0x20000c1c        0x0 ./driverlib/uart.o
 .bss           0x20000c1c        0x0 ./driverlib/usb.o
 .bss           0x20000c1c        0x0 ./driverlib/watchdog.o
 .bss           0x20000c1c        0x0 ./brtos/BRTOS.o
 .bss           0x20000c1c        0x0 ./brtos/OSInfo.o
 .bss           0x20000c1c        0x0 ./brtos/OSTime.o
 .bss           0x20000c1c        0x0 ./brtos/mbox.o
 .bss           0x20000c1c        0x0 ./brtos/mutex.o
 .bss           0x20000c1c        0x0 ./brtos/queue.o
 .bss           0x20000c1c        0x0 ./brtos/semaphore.o
 .bss           0x20000c1c        0x0 ./brtos/stimer.o
 .bss           0x20000c1c        0x0 ./USB/usb_serial_structs.o
 .bss           0x20000c1c        0x0 ./USB/cdc/usb_terminal.o
 .bss           0x20000c1c        0x0 ./USB/cdc/usb_terminal_commands.o
 .bss           0x20000c1c        0x0 ./USB/cdc/virtual_com.o
 .bss           0x20000c1c        0x0 c:/ti/ccsv6/tools/compiler/gcc-arm-none-eabi-4_8-2014q3/bin/../lib/gcc/arm-none-eabi/4.8.4/../../../../arm-none-eabi/lib/armv7e-m/fpu\libc.a(lib_a-exit.o)
 .bss           0x20000c1c        0x0 c:/ti/ccsv6/tools/compiler/gcc-arm-none-eabi-4_8-2014q3/bin/../lib/gcc/arm-none-eabi/4.8.4/../../../../arm-none-eabi/lib/armv7e-m/fpu\libc.a(lib_a-impure.o)
 .bss           0x20000c1c        0x0 c:/ti/ccsv6/tools/compiler/gcc-arm-none-eabi-4_8-2014q3/bin/../lib/gcc/arm-none-eabi/4.8.4/../../../../arm-none-eabi/lib/armv7e-m/fpu\libc.a(lib_a-init.o)
 .bss           0x20000c1c        0x0 c:/ti/ccsv6/tools/compiler/gcc-arm-none-eabi-4_8-2014q3/bin/../lib/gcc/arm-none-eabi/4.8.4/../../../../arm-none-eabi/lib/armv7e-m/fpu\libc.a(lib_a-memset.o)
 .bss           0x20000c1c        0x0 c:/ti/ccsv6/tools/compiler/gcc-arm-none-eabi-4_8-2014q3/bin/../lib/gcc/arm-none-eabi/4.8.4/../../../../arm-none-eabi/lib/armv7e-m/fpu\libc.a(lib_a-__call_atexit.o)
 .bss           0x20000c1c        0x0 c:/ti/ccsv6/tools/compiler/gcc-arm-none-eabi-4_8-2014q3/bin/../lib/gcc/arm-none-eabi/4.8.4/../../../../arm-none-eabi/lib/armv7e-m/fpu\libc.a(lib_a-atexit.o)
 .bss           0x20000c1c        0x0 c:/ti/ccsv6/tools/compiler/gcc-arm-none-eabi-4_8-2014q3/bin/../lib/gcc/arm-none-eabi/4.8.4/../../../../arm-none-eabi/lib/armv7e-m/fpu\libc.a(lib_a-fini.o)
 .bss           0x20000c1c        0x0 c:/ti/ccsv6/tools/compiler/gcc-arm-none-eabi-4_8-2014q3/bin/../lib/gcc/arm-none-eabi/4.8.4/../../../../arm-none-eabi/lib/armv7e-m/fpu\libc.a(lib_a-__atexit.o)
 .bss           0x20000c1c        0x0 c:/ti/ccsv6/tools/compiler/gcc-arm-none-eabi-4_8-2014q3/bin/../lib/gcc/arm-none-eabi/4.8.4/../../../../arm-none-eabi/lib/armv7e-m/fpu\libnosys.a(_exit.o)
 .bss           0x20000c1c        0x0 c:/ti/ccsv6/tools/compiler/gcc-arm-none-eabi-4_8-2014q3/bin/../lib/gcc/arm-none-eabi/4.8.4/armv7e-m/fpu/crtend.o
 .bss           0x20000c1c        0x0 c:/ti/ccsv6/tools/compiler/gcc-arm-none-eabi-4_8-2014q3/bin/../lib/gcc/arm-none-eabi/4.8.4/armv7e-m/fpu/crtn.o
 *(.bss.*)
 .bss.ucSwitchClockA.5339
                0x20000c1c        0x1 ./buttons.o
 .bss.ucSwitchClockB.5340
                0x20000c1d        0x1 ./buttons.o
 *fill*         0x20000c1e        0x2 
 .bss.g_ulColors
                0x20000c20        0xc ./rgb.o
 .bss.pui32Stack
                0x20000c2c      0x200 ./tm4c123gh6pm_startup_ccs_gcc.o
 .bss.g_psUSBDMAInst
                0x20000e2c      0x110 ./usblib/usbdma.o
 .bss.g_ui32WaitTicks
                0x20000f3c        0x4 ./usblib/usbmode.o
                0x20000f3c                g_ui32WaitTicks
 .bss.g_pfnUSBModeCallback
                0x20000f40        0x4 ./usblib/usbmode.o
 .bss.g_bUSBTimerInitialized
                0x20000f44        0x1 ./usblib/usbtick.o
                0x20000f44                g_bUSBTimerInitialized
 *fill*         0x20000f45        0x3 
 .bss.g_ui32CurrentUSBTick
                0x20000f48        0x4 ./usblib/usbtick.o
                0x20000f48                g_ui32CurrentUSBTick
 .bss.g_ui32USBSOFCount
                0x20000f4c        0x4 ./usblib/usbtick.o
                0x20000f4c                g_ui32USBSOFCount
 .bss.g_sAudioDevice
                0x20000f50       0x4c ./usblib/host/usbhaudio.o
 .bss.g_psHIDDevice
                0x20000f9c       0x64 ./usblib/host/usbhhid.o
 .bss.g_sUSBHKeyboard
                0x20001000       0x1c ./usblib/host/usbhhidkeyboard.o
 .bss.g_sUSBHMouse
                0x2000101c       0x1c ./usblib/host/usbhhidmouse.o
 .bss.g_sRootHub
                0x20001038       0x9c ./usblib/host/usbhhub.o
 .bss.g_ui32ChangeFlags
                0x200010d4        0x4 ./usblib/host/usbhhub.o
 .bss.g_ui32HubChanges
                0x200010d8        0x4 ./usblib/host/usbhhub.o
 .bss.g_sUSBHMSCDevice
                0x200010dc       0x1c ./usblib/host/usbhmsc.o
 .bss.g_sUSBHEP0State
                0x200010f8       0x18 ./usblib/host/usbhostenum.o
 .bss.g_ui32Tickms
                0x20001110        0x4 ./usblib/host/usbhostenum.o
 .bss.g_ui32CurrentTick
                0x20001114        0x4 ./usblib/host/usbhostenum.o
 .bss.g_ui32ULPISupport
                0x20001118        0x4 ./usblib/host/usbhostenum.o
 .bss.g_pi32USBHActiveDriver
                0x2000111c       0x18 ./usblib/host/usbhostenum.o
 .bss.g_ppvDriverInstance
                0x20001134       0x18 ./usblib/host/usbhostenum.o
 .bss.g_sUSBHCD
                0x2000114c      0x6cc ./usblib/host/usbhostenum.o
 .bss.g_pui32Alloc
                0x20001818        0x8 ./usblib/host/usbhostenum.o
 .bss.ui32SOFDivide.5533
                0x20001820        0x4 ./usblib/host/usbhostenum.o
 .bss.g_pui8DataBufferIn
                0x20001824       0x40 ./usblib/device/usbdenum.o
 .bss.g_ui32ULPISupport
                0x20001864        0x4 ./usblib/device/usbdenum.o
 .bss.ui32SOFDivide.5335
                0x20001868        0x4 ./usblib/device/usbdenum.o
 .bss.g_pui8Command
                0x2000186c       0x40 ./usblib/device/usbdmsc.o
 .bss.g_sSCSICSW
                0x200018ac       0x10 ./usblib/device/usbdmsc.o
 .bss.iStackAddress
                0x200018bc        0x2 ./brtos/BRTOS.o
                0x200018bc                iStackAddress
 .bss.iQueueAddress
                0x200018be        0x2 ./brtos/BRTOS.o
                0x200018be                iQueueAddress
 .bss.OSReadyList
                0x200018c0        0x4 ./brtos/BRTOS.o
                0x200018c0                OSReadyList
 .bss.OSTickCounter
                0x200018c4        0x2 ./brtos/BRTOS.o
 *fill*         0x200018c6        0x2 
 .bss.OSDuty    0x200018c8        0x4 ./brtos/BRTOS.o
                0x200018c8                OSDuty
 .bss.OSDutyTmp
                0x200018cc        0x4 ./brtos/BRTOS.o
                0x200018cc                OSDutyTmp
 .bss.LastOSDuty
                0x200018d0        0x4 ./brtos/BRTOS.o
                0x200018d0                LastOSDuty
 .bss.DutyCnt   0x200018d4        0x2 ./brtos/BRTOS.o
                0x200018d4                DutyCnt
 *fill*         0x200018d6        0x2 
 .bss.TaskAlloc
                0x200018d8        0x4 ./brtos/BRTOS.o
                0x200018d8                TaskAlloc
 .bss.iNesting  0x200018dc        0x1 ./brtos/BRTOS.o
                0x200018dc                iNesting
 *fill*         0x200018dd        0x3 
 .bss.Hora      0x200018e0        0x4 ./brtos/OSTime.o
 .bss.Data      0x200018e4        0x4 ./brtos/OSTime.o
 .bss.OSRtc     0x200018e8        0x8 ./brtos/OSTime.o
 .bss.LeapMonth
                0x200018f0        0x1 ./brtos/OSTime.o
 *fill*         0x200018f1        0x3 
 .bss.BRTOS_TIMER_VECTOR
                0x200018f4       0x4c ./brtos/stimer.o
 .bss.BRTOS_TMR_PING
                0x20001940       0x24 ./brtos/stimer.o
 .bss.BRTOS_TMR_PONG
                0x20001964       0x24 ./brtos/stimer.o
 .bss.SilentMode
                0x20001988        0x1 ./USB/cdc/usb_terminal.o
 *fill*         0x20001989        0x3 
 .bss.usb_cmd_line
                0x2000198c       0x80 ./USB/cdc/usb_terminal.o
 .bss.last_cmd_line
                0x20001a0c       0x80 ./USB/cdc/usb_terminal.o
 .bss.usb_cmd_line_ndx
                0x20001a8c        0x1 ./USB/cdc/usb_terminal.o
 .bss.usb_n_cmd
                0x20001a8d        0x1 ./USB/cdc/usb_terminal.o
 *fill*         0x20001a8e        0x2 
 .bss.usb_cmds  0x20001a90       0x58 ./USB/cdc/usb_terminal.o
 .bss.g_bUSBConfigured
                0x20001ae8        0x1 ./USB/cdc/virtual_com.o
                0x20001ae8                g_bUSBConfigured
 *fill*         0x20001ae9        0x3 
 .bss.g_ulFlags
                0x20001aec        0x4 ./USB/cdc/virtual_com.o
                0x20001aec                g_ulFlags
 .bss.flag.6334
                0x20001af0        0x4 ./USB/cdc/virtual_com.o
 *(COMMON)
 COMMON         0x20001af4       0x20 ./main.o
                0x20001af4                th7
                0x20001af8                th4
                0x20001afc                thst
                0x20001b00                th5
                0x20001b04                th6
                0x20001b08                th1
                0x20001b0c                th3
                0x20001b10                th2
 COMMON         0x20001b14       0x14 ./tarefas.o
                0x20001b14                sUART
                0x20001b18                mutexTx
                0x20001b1c                qKeyboard
                0x20001b20                qUART
                0x20001b24                sKeyboard
 COMMON         0x20001b28        0x8 ./usblib/usbmode.o
                0x20001b28                g_eOTGModeState
                0x20001b2c                g_ui32PollRate
 COMMON         0x20001b30       0x30 ./usblib/usbtick.o
                0x20001b30                g_pvTickInstance
                0x20001b48                g_pfnTickHandlers
 COMMON         0x20001b60        0x4 ./usblib/device/usbdcomp.o
                0x20001b60                g_ppCompConfigDescriptors
 COMMON         0x20001b64       0x54 ./usblib/device/usbdenum.o
                0x20001b64                g_psDCDInst
                0x20001bb4                g_ppsDevInfo
 COMMON         0x20001bb8        0x4 ./hal/HAL.o
                0x20001bb8                SPvalue
 COMMON         0x20001bbc     0x38c4 ./brtos/BRTOS.o
                0x20001bbc                BRTOS_Sem_Table
                0x20001c5c                BRTOS_Queue_Table
                0x20001d4c                NumberOfInstalledTasks
                0x20001d50                PriorityVector
                0x20001d70                SelectedTask
                0x20001d71                currentTask
                0x20001d74                QUEUE_STACK
                0x20002174                BRTOS_Mutex_Table
                0x200021a4                BRTOS_Mbox_Table
                0x200021e0                STACK
                0x200051e0                Head
                0x200051e4                ContextTask
                0x200052ec                Tail
                0x200052f0                BRTOS_OS_QUEUE_Table
 COMMON         0x20005480      0x230 ./USB/usb_serial_structs.o
                0x20005480                g_pui8RxBufferWorkspace
                0x20005498                g_pui8TxBufferWorkspace
                0x200054b0                g_pui8USBRxBuffer
                0x200055b0                g_pui8USBTxBuffer
 COMMON         0x200056b0      0x200 ./USB/cdc/usb_terminal_commands.o
                0x200056b0                text
                0x20005830                entradas
 COMMON         0x200058b0        0x8 ./USB/cdc/virtual_com.o
                0x200058b0                USB
                0x200058b4                g_pcStatus
                0x200058b8                . = ALIGN (0x4)
                0x200058b8                __bss_end__ = .

.heap           0x200058b8        0x0
                0x200058b8                __heap_start__ = .
                0x200058b8                end = __heap_start__
                0x200058b8                _end = end
                0x200058b8                __end = end
 *(.heap)
                0x200058b8                __heap_end__ = .
                0x200058b8                __HeapLimit = __heap_end__

.stack          0x200058b8        0x0
                0x200058b8                _stack = .
                0x200058b8                __stack = .
 *(.stack)
START GROUP
LOAD c:/ti/ccsv6/tools/compiler/gcc-arm-none-eabi-4_8-2014q3/bin/../lib/gcc/arm-none-eabi/4.8.4/../../../../arm-none-eabi/lib/armv7e-m/fpu\libc.a
LOAD c:/ti/ccsv6/tools/compiler/gcc-arm-none-eabi-4_8-2014q3/bin/../lib/gcc/arm-none-eabi/4.8.4/armv7e-m/fpu\libgcc.a
LOAD c:/ti/ccsv6/tools/compiler/gcc-arm-none-eabi-4_8-2014q3/bin/../lib/gcc/arm-none-eabi/4.8.4/../../../../arm-none-eabi/lib/armv7e-m/fpu\libnosys.a
END GROUP
START GROUP
LOAD c:/ti/ccsv6/tools/compiler/gcc-arm-none-eabi-4_8-2014q3/bin/../lib/gcc/arm-none-eabi/4.8.4/armv7e-m/fpu\libgcc.a
LOAD c:/ti/ccsv6/tools/compiler/gcc-arm-none-eabi-4_8-2014q3/bin/../lib/gcc/arm-none-eabi/4.8.4/../../../../arm-none-eabi/lib/armv7e-m/fpu\libg.a
LOAD c:/ti/ccsv6/tools/compiler/gcc-arm-none-eabi-4_8-2014q3/bin/../lib/gcc/arm-none-eabi/4.8.4/../../../../arm-none-eabi/lib/armv7e-m/fpu\libc.a
END GROUP
LOAD c:/ti/ccsv6/tools/compiler/gcc-arm-none-eabi-4_8-2014q3/bin/../lib/gcc/arm-none-eabi/4.8.4/armv7e-m/fpu/crtend.o
LOAD c:/ti/ccsv6/tools/compiler/gcc-arm-none-eabi-4_8-2014q3/bin/../lib/gcc/arm-none-eabi/4.8.4/armv7e-m/fpu/crtn.o
OUTPUT(ex_BRTOS_Tiva.out elf32-littlearm)

.ARM.attributes
                0x00000000       0x30
 .ARM.attributes
                0x00000000       0x22 c:/ti/ccsv6/tools/compiler/gcc-arm-none-eabi-4_8-2014q3/bin/../lib/gcc/arm-none-eabi/4.8.4/armv7e-m/fpu/crti.o
 .ARM.attributes
                0x00000022       0x34 c:/ti/ccsv6/tools/compiler/gcc-arm-none-eabi-4_8-2014q3/bin/../lib/gcc/arm-none-eabi/4.8.4/armv7e-m/fpu/crtbegin.o
 .ARM.attributes
                0x00000056       0x20 c:/ti/ccsv6/tools/compiler/gcc-arm-none-eabi-4_8-2014q3/bin/../lib/gcc/arm-none-eabi/4.8.4/../../../../arm-none-eabi/lib/armv7e-m/fpu/crt0.o
 .ARM.attributes
                0x00000076       0x39 ./buttons.o
 .ARM.attributes
                0x000000af       0x39 ./main.o
 .ARM.attributes
                0x000000e8       0x39 ./rgb.o
 .ARM.attributes
                0x00000121       0x39 ./tarefas.o
 .ARM.attributes
                0x0000015a       0x39 ./tm4c123gh6pm_startup_ccs_gcc.o
 .ARM.attributes
                0x00000193       0x39 ./usblib/usbbuffer.o
 .ARM.attributes
                0x000001cc       0x39 ./usblib/usbdesc.o
 .ARM.attributes
                0x00000205       0x39 ./usblib/usbdma.o
 .ARM.attributes
                0x0000023e       0x39 ./usblib/usbkeyboardmap.o
 .ARM.attributes
                0x00000277       0x39 ./usblib/usbmode.o
 .ARM.attributes
                0x000002b0       0x39 ./usblib/usbringbuf.o
 .ARM.attributes
                0x000002e9       0x39 ./usblib/usbtick.o
 .ARM.attributes
                0x00000322       0x39 ./usblib/usbulpi.o
 .ARM.attributes
                0x0000035b       0x39 ./usblib/host/usbhaudio.o
 .ARM.attributes
                0x00000394       0x39 ./usblib/host/usbhhid.o
 .ARM.attributes
                0x000003cd       0x39 ./usblib/host/usbhhidkeyboard.o
 .ARM.attributes
                0x00000406       0x39 ./usblib/host/usbhhidmouse.o
 .ARM.attributes
                0x0000043f       0x39 ./usblib/host/usbhhub.o
 .ARM.attributes
                0x00000478       0x39 ./usblib/host/usbhmsc.o
 .ARM.attributes
                0x000004b1       0x39 ./usblib/host/usbhostenum.o
 .ARM.attributes
                0x000004ea       0x39 ./usblib/host/usbhscsi.o
 .ARM.attributes
                0x00000523       0x39 ./usblib/device/usbdaudio.o
 .ARM.attributes
                0x0000055c       0x39 ./usblib/device/usbdbulk.o
 .ARM.attributes
                0x00000595       0x39 ./usblib/device/usbdcdc.o
 .ARM.attributes
                0x000005ce       0x39 ./usblib/device/usbdcdesc.o
 .ARM.attributes
                0x00000607       0x39 ./usblib/device/usbdcomp.o
 .ARM.attributes
                0x00000640       0x39 ./usblib/device/usbdconfig.o
 .ARM.attributes
                0x00000679       0x39 ./usblib/device/usbddfu-rt.o
 .ARM.attributes
                0x000006b2       0x39 ./usblib/device/usbdenum.o
 .ARM.attributes
                0x000006eb       0x39 ./usblib/device/usbdhandler.o
 .ARM.attributes
                0x00000724       0x39 ./usblib/device/usbdhid.o
 .ARM.attributes
                0x0000075d       0x39 ./usblib/device/usbdhidkeyb.o
 .ARM.attributes
                0x00000796       0x39 ./usblib/device/usbdhidmouse.o
 .ARM.attributes
                0x000007cf       0x39 ./usblib/device/usbdmsc.o
 .ARM.attributes
                0x00000808       0x39 ./hal/HAL.o
 .ARM.attributes
                0x00000841       0x39 ./driverlib/cpu.o
 .ARM.attributes
                0x0000087a       0x39 ./driverlib/fpu.o
 .ARM.attributes
                0x000008b3       0x39 ./driverlib/gpio.o
 .ARM.attributes
                0x000008ec       0x39 ./driverlib/interrupt.o
 .ARM.attributes
                0x00000925       0x39 ./driverlib/sysctl.o
 .ARM.attributes
                0x0000095e       0x39 ./driverlib/timer.o
 .ARM.attributes
                0x00000997       0x39 ./driverlib/uart.o
 .ARM.attributes
                0x000009d0       0x39 ./driverlib/usb.o
 .ARM.attributes
                0x00000a09       0x39 ./driverlib/watchdog.o
 .ARM.attributes
                0x00000a42       0x39 ./brtos/BRTOS.o
 .ARM.attributes
                0x00000a7b       0x39 ./brtos/OSInfo.o
 .ARM.attributes
                0x00000ab4       0x39 ./brtos/OSTime.o
 .ARM.attributes
                0x00000aed       0x39 ./brtos/mbox.o
 .ARM.attributes
                0x00000b26       0x39 ./brtos/mutex.o
 .ARM.attributes
                0x00000b5f       0x39 ./brtos/queue.o
 .ARM.attributes
                0x00000b98       0x39 ./brtos/semaphore.o
 .ARM.attributes
                0x00000bd1       0x39 ./brtos/stimer.o
 .ARM.attributes
                0x00000c0a       0x39 ./USB/usb_serial_structs.o
 .ARM.attributes
                0x00000c43       0x39 ./USB/cdc/usb_terminal.o
 .ARM.attributes
                0x00000c7c       0x39 ./USB/cdc/usb_terminal_commands.o
 .ARM.attributes
                0x00000cb5       0x39 ./USB/cdc/virtual_com.o
 .ARM.attributes
                0x00000cee       0x34 c:/ti/ccsv6/tools/compiler/gcc-arm-none-eabi-4_8-2014q3/bin/../lib/gcc/arm-none-eabi/4.8.4/../../../../arm-none-eabi/lib/armv7e-m/fpu\libc.a(lib_a-exit.o)
 .ARM.attributes
                0x00000d22       0x34 c:/ti/ccsv6/tools/compiler/gcc-arm-none-eabi-4_8-2014q3/bin/../lib/gcc/arm-none-eabi/4.8.4/../../../../arm-none-eabi/lib/armv7e-m/fpu\libc.a(lib_a-impure.o)
 .ARM.attributes
                0x00000d56       0x34 c:/ti/ccsv6/tools/compiler/gcc-arm-none-eabi-4_8-2014q3/bin/../lib/gcc/arm-none-eabi/4.8.4/../../../../arm-none-eabi/lib/armv7e-m/fpu\libc.a(lib_a-init.o)
 .ARM.attributes
                0x00000d8a       0x34 c:/ti/ccsv6/tools/compiler/gcc-arm-none-eabi-4_8-2014q3/bin/../lib/gcc/arm-none-eabi/4.8.4/../../../../arm-none-eabi/lib/armv7e-m/fpu\libc.a(lib_a-memset.o)
 .ARM.attributes
                0x00000dbe       0x34 c:/ti/ccsv6/tools/compiler/gcc-arm-none-eabi-4_8-2014q3/bin/../lib/gcc/arm-none-eabi/4.8.4/../../../../arm-none-eabi/lib/armv7e-m/fpu\libc.a(lib_a-__call_atexit.o)
 .ARM.attributes
                0x00000df2       0x34 c:/ti/ccsv6/tools/compiler/gcc-arm-none-eabi-4_8-2014q3/bin/../lib/gcc/arm-none-eabi/4.8.4/../../../../arm-none-eabi/lib/armv7e-m/fpu\libc.a(lib_a-atexit.o)
 .ARM.attributes
                0x00000e26       0x34 c:/ti/ccsv6/tools/compiler/gcc-arm-none-eabi-4_8-2014q3/bin/../lib/gcc/arm-none-eabi/4.8.4/../../../../arm-none-eabi/lib/armv7e-m/fpu\libc.a(lib_a-fini.o)
 .ARM.attributes
                0x00000e5a       0x34 c:/ti/ccsv6/tools/compiler/gcc-arm-none-eabi-4_8-2014q3/bin/../lib/gcc/arm-none-eabi/4.8.4/../../../../arm-none-eabi/lib/armv7e-m/fpu\libc.a(lib_a-__atexit.o)
 .ARM.attributes
                0x00000e8e       0x34 c:/ti/ccsv6/tools/compiler/gcc-arm-none-eabi-4_8-2014q3/bin/../lib/gcc/arm-none-eabi/4.8.4/../../../../arm-none-eabi/lib/armv7e-m/fpu\libnosys.a(_exit.o)
 .ARM.attributes
                0x00000ec2       0x34 c:/ti/ccsv6/tools/compiler/gcc-arm-none-eabi-4_8-2014q3/bin/../lib/gcc/arm-none-eabi/4.8.4/armv7e-m/fpu/crtend.o
 .ARM.attributes
                0x00000ef6       0x22 c:/ti/ccsv6/tools/compiler/gcc-arm-none-eabi-4_8-2014q3/bin/../lib/gcc/arm-none-eabi/4.8.4/armv7e-m/fpu/crtn.o

.comment        0x00000000       0x70
 .comment       0x00000000       0x70 ./buttons.o
                                 0x71 (size before relaxing)
 .comment       0x00000000       0x71 ./main.o
 .comment       0x00000000       0x71 ./rgb.o
 .comment       0x00000000       0x71 ./tarefas.o
 .comment       0x00000000       0x71 ./tm4c123gh6pm_startup_ccs_gcc.o
 .comment       0x00000000       0x71 ./usblib/usbbuffer.o
 .comment       0x00000000       0x71 ./usblib/usbdesc.o
 .comment       0x00000000       0x71 ./usblib/usbdma.o
 .comment       0x00000000       0x71 ./usblib/usbkeyboardmap.o
 .comment       0x00000000       0x71 ./usblib/usbmode.o
 .comment       0x00000000       0x71 ./usblib/usbringbuf.o
 .comment       0x00000000       0x71 ./usblib/usbtick.o
 .comment       0x00000000       0x71 ./usblib/usbulpi.o
 .comment       0x00000000       0x71 ./usblib/host/usbhaudio.o
 .comment       0x00000000       0x71 ./usblib/host/usbhhid.o
 .comment       0x00000000       0x71 ./usblib/host/usbhhidkeyboard.o
 .comment       0x00000000       0x71 ./usblib/host/usbhhidmouse.o
 .comment       0x00000000       0x71 ./usblib/host/usbhhub.o
 .comment       0x00000000       0x71 ./usblib/host/usbhmsc.o
 .comment       0x00000000       0x71 ./usblib/host/usbhostenum.o
 .comment       0x00000000       0x71 ./usblib/host/usbhscsi.o
 .comment       0x00000000       0x71 ./usblib/device/usbdaudio.o
 .comment       0x00000000       0x71 ./usblib/device/usbdbulk.o
 .comment       0x00000000       0x71 ./usblib/device/usbdcdc.o
 .comment       0x00000000       0x71 ./usblib/device/usbdcdesc.o
 .comment       0x00000000       0x71 ./usblib/device/usbdcomp.o
 .comment       0x00000000       0x71 ./usblib/device/usbdconfig.o
 .comment       0x00000000       0x71 ./usblib/device/usbddfu-rt.o
 .comment       0x00000000       0x71 ./usblib/device/usbdenum.o
 .comment       0x00000000       0x71 ./usblib/device/usbdhandler.o
 .comment       0x00000000       0x71 ./usblib/device/usbdhid.o
 .comment       0x00000000       0x71 ./usblib/device/usbdhidkeyb.o
 .comment       0x00000000       0x71 ./usblib/device/usbdhidmouse.o
 .comment       0x00000000       0x71 ./usblib/device/usbdmsc.o
 .comment       0x00000000       0x71 ./hal/HAL.o
 .comment       0x00000000       0x71 ./driverlib/cpu.o
 .comment       0x00000000       0x71 ./driverlib/fpu.o
 .comment       0x00000000       0x71 ./driverlib/gpio.o
 .comment       0x00000000       0x71 ./driverlib/interrupt.o
 .comment       0x00000000       0x71 ./driverlib/sysctl.o
 .comment       0x00000000       0x71 ./driverlib/timer.o
 .comment       0x00000000       0x71 ./driverlib/uart.o
 .comment       0x00000000       0x71 ./driverlib/usb.o
 .comment       0x00000000       0x71 ./driverlib/watchdog.o
 .comment       0x00000000       0x71 ./brtos/BRTOS.o
 .comment       0x00000000       0x71 ./brtos/OSInfo.o
 .comment       0x00000000       0x71 ./brtos/OSTime.o
 .comment       0x00000000       0x71 ./brtos/mbox.o
 .comment       0x00000000       0x71 ./brtos/mutex.o
 .comment       0x00000000       0x71 ./brtos/queue.o
 .comment       0x00000000       0x71 ./brtos/semaphore.o
 .comment       0x00000000       0x71 ./brtos/stimer.o
 .comment       0x00000000       0x71 ./USB/usb_serial_structs.o
 .comment       0x00000000       0x71 ./USB/cdc/usb_terminal.o
 .comment       0x00000000       0x71 ./USB/cdc/usb_terminal_commands.o
 .comment       0x00000000       0x71 ./USB/cdc/virtual_com.o

.debug_info     0x00000000    0x1e285
 .debug_info    0x00000000      0x1d7 ./buttons.o
 .debug_info    0x000001d7      0x14d ./main.o
 .debug_info    0x00000324      0x1fb ./rgb.o
 .debug_info    0x0000051f      0xb95 ./tarefas.o
 .debug_info    0x000010b4      0x17d ./tm4c123gh6pm_startup_ccs_gcc.o
 .debug_info    0x00001231      0x7fd ./usblib/usbbuffer.o
 .debug_info    0x00001a2e      0x4cb ./usblib/usbdesc.o
 .debug_info    0x00001ef9      0xab9 ./usblib/usbdma.o
 .debug_info    0x000029b2      0x133 ./usblib/usbkeyboardmap.o
 .debug_info    0x00002ae5      0x89d ./usblib/usbmode.o
 .debug_info    0x00003382      0x53b ./usblib/usbringbuf.o
 .debug_info    0x000038bd      0x1f7 ./usblib/usbtick.o
 .debug_info    0x00003ab4      0x115 ./usblib/usbulpi.o
 .debug_info    0x00003bc9     0x10ad ./usblib/host/usbhaudio.o
 .debug_info    0x00004c76      0x8ee ./usblib/host/usbhhid.o
 .debug_info    0x00005564      0x502 ./usblib/host/usbhhidkeyboard.o
 .debug_info    0x00005a66      0x331 ./usblib/host/usbhhidmouse.o
 .debug_info    0x00005d97      0xbdb ./usblib/host/usbhhub.o
 .debug_info    0x00006972      0x806 ./usblib/host/usbhmsc.o
 .debug_info    0x00007178     0x1ebb ./usblib/host/usbhostenum.o
 .debug_info    0x00009033      0x5f0 ./usblib/host/usbhscsi.o
 .debug_info    0x00009623      0xf6f ./usblib/device/usbdaudio.o
 .debug_info    0x0000a592      0xeda ./usblib/device/usbdbulk.o
 .debug_info    0x0000b46c     0x14d9 ./usblib/device/usbdcdc.o
 .debug_info    0x0000c945      0x5bc ./usblib/device/usbdcdesc.o
 .debug_info    0x0000cf01     0x1097 ./usblib/device/usbdcomp.o
 .debug_info    0x0000df98      0x8c2 ./usblib/device/usbdconfig.o
 .debug_info    0x0000e85a      0x748 ./usblib/device/usbddfu-rt.o
 .debug_info    0x0000efa2     0x1489 ./usblib/device/usbdenum.o
 .debug_info    0x0001042b       0xb2 ./usblib/device/usbdhandler.o
 .debug_info    0x000104dd     0x1411 ./usblib/device/usbdhid.o
 .debug_info    0x000118ee      0xf5a ./usblib/device/usbdhidkeyb.o
 .debug_info    0x00012848      0xe04 ./usblib/device/usbdhidmouse.o
 .debug_info    0x0001364c     0x12d2 ./usblib/device/usbdmsc.o
 .debug_info    0x0001491e      0x2a6 ./hal/HAL.o
 .debug_info    0x00014bc4      0x15f ./driverlib/cpu.o
 .debug_info    0x00014d23      0x177 ./driverlib/fpu.o
 .debug_info    0x00014e9a      0xd30 ./driverlib/gpio.o
 .debug_info    0x00015bca      0x46e ./driverlib/interrupt.o
 .debug_info    0x00016038      0xb3b ./driverlib/sysctl.o
 .debug_info    0x00016b73      0xb0b ./driverlib/timer.o
 .debug_info    0x0001767e      0xb62 ./driverlib/uart.o
 .debug_info    0x000181e0     0x1a48 ./driverlib/usb.o
 .debug_info    0x00019c28      0x39f ./driverlib/watchdog.o
 .debug_info    0x00019fc7      0xaef ./brtos/BRTOS.o
 .debug_info    0x0001aab6      0x4c5 ./brtos/OSInfo.o
 .debug_info    0x0001af7b      0x348 ./brtos/OSTime.o
 .debug_info    0x0001b2c3      0x3b5 ./brtos/mbox.o
 .debug_info    0x0001b678      0x3c4 ./brtos/mutex.o
 .debug_info    0x0001ba3c      0x6c5 ./brtos/queue.o
 .debug_info    0x0001c101      0x386 ./brtos/semaphore.o
 .debug_info    0x0001c487      0x6ae ./brtos/stimer.o
 .debug_info    0x0001cb35      0x8b7 ./USB/usb_serial_structs.o
 .debug_info    0x0001d3ec      0x4e6 ./USB/cdc/usb_terminal.o
 .debug_info    0x0001d8d2      0x389 ./USB/cdc/usb_terminal_commands.o
 .debug_info    0x0001dc5b      0x62a ./USB/cdc/virtual_com.o

.debug_abbrev   0x00000000     0x462c
 .debug_abbrev  0x00000000       0xc6 ./buttons.o
 .debug_abbrev  0x000000c6       0x70 ./main.o
 .debug_abbrev  0x00000136       0xd8 ./rgb.o
 .debug_abbrev  0x0000020e      0x1cf ./tarefas.o
 .debug_abbrev  0x000003dd       0xca ./tm4c123gh6pm_startup_ccs_gcc.o
 .debug_abbrev  0x000004a7      0x172 ./usblib/usbbuffer.o
 .debug_abbrev  0x00000619       0xee ./usblib/usbdesc.o
 .debug_abbrev  0x00000707      0x15b ./usblib/usbdma.o
 .debug_abbrev  0x00000862       0x9c ./usblib/usbkeyboardmap.o
 .debug_abbrev  0x000008fe      0x1c7 ./usblib/usbmode.o
 .debug_abbrev  0x00000ac5      0x13d ./usblib/usbringbuf.o
 .debug_abbrev  0x00000c02       0xdd ./usblib/usbtick.o
 .debug_abbrev  0x00000cdf       0x6c ./usblib/usbulpi.o
 .debug_abbrev  0x00000d4b      0x1a4 ./usblib/host/usbhaudio.o
 .debug_abbrev  0x00000eef      0x1bc ./usblib/host/usbhhid.o
 .debug_abbrev  0x000010ab      0x17f ./usblib/host/usbhhidkeyboard.o
 .debug_abbrev  0x0000122a      0x140 ./usblib/host/usbhhidmouse.o
 .debug_abbrev  0x0000136a      0x18c ./usblib/host/usbhhub.o
 .debug_abbrev  0x000014f6      0x178 ./usblib/host/usbhmsc.o
 .debug_abbrev  0x0000166e      0x1d6 ./usblib/host/usbhostenum.o
 .debug_abbrev  0x00001844      0x10a ./usblib/host/usbhscsi.o
 .debug_abbrev  0x0000194e      0x181 ./usblib/device/usbdaudio.o
 .debug_abbrev  0x00001acf      0x188 ./usblib/device/usbdbulk.o
 .debug_abbrev  0x00001c57      0x191 ./usblib/device/usbdcdc.o
 .debug_abbrev  0x00001de8       0xf5 ./usblib/device/usbdcdesc.o
 .debug_abbrev  0x00001edd      0x18f ./usblib/device/usbdcomp.o
 .debug_abbrev  0x0000206c      0x193 ./usblib/device/usbdconfig.o
 .debug_abbrev  0x000021ff      0x167 ./usblib/device/usbddfu-rt.o
 .debug_abbrev  0x00002366      0x1e8 ./usblib/device/usbdenum.o
 .debug_abbrev  0x0000254e       0x5b ./usblib/device/usbdhandler.o
 .debug_abbrev  0x000025a9      0x1aa ./usblib/device/usbdhid.o
 .debug_abbrev  0x00002753      0x16d ./usblib/device/usbdhidkeyb.o
 .debug_abbrev  0x000028c0      0x18f ./usblib/device/usbdhidmouse.o
 .debug_abbrev  0x00002a4f      0x1c1 ./usblib/device/usbdmsc.o
 .debug_abbrev  0x00002c10      0x12e ./hal/HAL.o
 .debug_abbrev  0x00002d3e       0xc0 ./driverlib/cpu.o
 .debug_abbrev  0x00002dfe       0x96 ./driverlib/fpu.o
 .debug_abbrev  0x00002e94       0xe3 ./driverlib/gpio.o
 .debug_abbrev  0x00002f77       0xfe ./driverlib/interrupt.o
 .debug_abbrev  0x00003075      0x149 ./driverlib/sysctl.o
 .debug_abbrev  0x000031be      0x103 ./driverlib/timer.o
 .debug_abbrev  0x000032c1      0x113 ./driverlib/uart.o
 .debug_abbrev  0x000033d4      0x129 ./driverlib/usb.o
 .debug_abbrev  0x000034fd       0xda ./driverlib/watchdog.o
 .debug_abbrev  0x000035d7      0x18f ./brtos/BRTOS.o
 .debug_abbrev  0x00003766      0x155 ./brtos/OSInfo.o
 .debug_abbrev  0x000038bb      0x116 ./brtos/OSTime.o
 .debug_abbrev  0x000039d1      0x131 ./brtos/mbox.o
 .debug_abbrev  0x00003b02      0x135 ./brtos/mutex.o
 .debug_abbrev  0x00003c37      0x131 ./brtos/queue.o
 .debug_abbrev  0x00003d68      0x144 ./brtos/semaphore.o
 .debug_abbrev  0x00003eac      0x1b0 ./brtos/stimer.o
 .debug_abbrev  0x0000405c       0xf9 ./USB/usb_serial_structs.o
 .debug_abbrev  0x00004155      0x1fe ./USB/cdc/usb_terminal.o
 .debug_abbrev  0x00004353      0x144 ./USB/cdc/usb_terminal_commands.o
 .debug_abbrev  0x00004497      0x195 ./USB/cdc/virtual_com.o

.debug_aranges  0x00000000     0x2200
 .debug_aranges
                0x00000000       0x30 ./buttons.o
 .debug_aranges
                0x00000030       0x20 ./main.o
 .debug_aranges
                0x00000050       0x50 ./rgb.o
 .debug_aranges
                0x000000a0       0x70 ./tarefas.o
 .debug_aranges
                0x00000110       0x38 ./tm4c123gh6pm_startup_ccs_gcc.o
 .debug_aranges
                0x00000148       0xa0 ./usblib/usbbuffer.o
 .debug_aranges
                0x000001e8       0x48 ./usblib/usbdesc.o
 .debug_aranges
                0x00000230       0xf8 ./usblib/usbdma.o
 .debug_aranges
                0x00000328       0x18 ./usblib/usbkeyboardmap.o
 .debug_aranges
                0x00000340       0x80 ./usblib/usbmode.o
 .debug_aranges
                0x000003c0       0x98 ./usblib/usbringbuf.o
 .debug_aranges
                0x00000458       0x38 ./usblib/usbtick.o
 .debug_aranges
                0x00000490       0x28 ./usblib/usbulpi.o
 .debug_aranges
                0x000004b8       0xc0 ./usblib/host/usbhaudio.o
 .debug_aranges
                0x00000578       0x78 ./usblib/host/usbhhid.o
 .debug_aranges
                0x000005f0       0x68 ./usblib/host/usbhhidkeyboard.o
 .debug_aranges
                0x00000658       0x50 ./usblib/host/usbhhidmouse.o
 .debug_aranges
                0x000006a8       0xb8 ./usblib/host/usbhhub.o
 .debug_aranges
                0x00000760       0x68 ./usblib/host/usbhmsc.o
 .debug_aranges
                0x000007c8      0x1f8 ./usblib/host/usbhostenum.o
 .debug_aranges
                0x000009c0       0x60 ./usblib/host/usbhscsi.o
 .debug_aranges
                0x00000a20       0x70 ./usblib/device/usbdaudio.o
 .debug_aranges
                0x00000a90       0xc0 ./usblib/device/usbdbulk.o
 .debug_aranges
                0x00000b50      0x128 ./usblib/device/usbdcdc.o
 .debug_aranges
                0x00000c78       0x58 ./usblib/device/usbdcdesc.o
 .debug_aranges
                0x00000cd0       0xb0 ./usblib/device/usbdcomp.o
 .debug_aranges
                0x00000d80       0x38 ./usblib/device/usbdconfig.o
 .debug_aranges
                0x00000db8       0x48 ./usblib/device/usbddfu-rt.o
 .debug_aranges
                0x00000e00      0x108 ./usblib/device/usbdenum.o
 .debug_aranges
                0x00000f08       0x20 ./usblib/device/usbdhandler.o
 .debug_aranges
                0x00000f28      0x120 ./usblib/device/usbdhid.o
 .debug_aranges
                0x00001048       0x70 ./usblib/device/usbdhidkeyb.o
 .debug_aranges
                0x000010b8       0x60 ./usblib/device/usbdhidmouse.o
 .debug_aranges
                0x00001118       0xb8 ./usblib/device/usbdmsc.o
 .debug_aranges
                0x000011d0       0x58 ./hal/HAL.o
 .debug_aranges
                0x00001228       0x48 ./driverlib/cpu.o
 .debug_aranges
                0x00001270       0x60 ./driverlib/fpu.o
 .debug_aranges
                0x000012d0      0x1a0 ./driverlib/gpio.o
 .debug_aranges
                0x00001470       0xa0 ./driverlib/interrupt.o
 .debug_aranges
                0x00001510      0x1e0 ./driverlib/sysctl.o
 .debug_aranges
                0x000016f0      0x150 ./driverlib/timer.o
 .debug_aranges
                0x00001840      0x190 ./driverlib/uart.o
 .debug_aranges
                0x000019d0      0x358 ./driverlib/usb.o
 .debug_aranges
                0x00001d28       0xa8 ./driverlib/watchdog.o
 .debug_aranges
                0x00001dd0       0xb8 ./brtos/BRTOS.o
 .debug_aranges
                0x00001e88       0x48 ./brtos/OSInfo.o
 .debug_aranges
                0x00001ed0       0x70 ./brtos/OSTime.o
 .debug_aranges
                0x00001f40       0x38 ./brtos/mbox.o
 .debug_aranges
                0x00001f78       0x38 ./brtos/mutex.o
 .debug_aranges
                0x00001fb0       0x68 ./brtos/queue.o
 .debug_aranges
                0x00002018       0x38 ./brtos/semaphore.o
 .debug_aranges
                0x00002050       0x68 ./brtos/stimer.o
 .debug_aranges
                0x000020b8       0x18 ./USB/usb_serial_structs.o
 .debug_aranges
                0x000020d0       0x78 ./USB/cdc/usb_terminal.o
 .debug_aranges
                0x00002148       0x48 ./USB/cdc/usb_terminal_commands.o
 .debug_aranges
                0x00002190       0x70 ./USB/cdc/virtual_com.o

.debug_ranges   0x00000000     0x1e70
 .debug_ranges  0x00000000       0x20 ./buttons.o
 .debug_ranges  0x00000020       0x10 ./main.o
 .debug_ranges  0x00000030       0x40 ./rgb.o
 .debug_ranges  0x00000070       0x60 ./tarefas.o
 .debug_ranges  0x000000d0       0x28 ./tm4c123gh6pm_startup_ccs_gcc.o
 .debug_ranges  0x000000f8       0x90 ./usblib/usbbuffer.o
 .debug_ranges  0x00000188       0x38 ./usblib/usbdesc.o
 .debug_ranges  0x000001c0       0xe8 ./usblib/usbdma.o
 .debug_ranges  0x000002a8       0x70 ./usblib/usbmode.o
 .debug_ranges  0x00000318       0x88 ./usblib/usbringbuf.o
 .debug_ranges  0x000003a0       0x28 ./usblib/usbtick.o
 .debug_ranges  0x000003c8       0x18 ./usblib/usbulpi.o
 .debug_ranges  0x000003e0       0xb0 ./usblib/host/usbhaudio.o
 .debug_ranges  0x00000490       0x68 ./usblib/host/usbhhid.o
 .debug_ranges  0x000004f8       0x58 ./usblib/host/usbhhidkeyboard.o
 .debug_ranges  0x00000550       0x40 ./usblib/host/usbhhidmouse.o
 .debug_ranges  0x00000590       0xa8 ./usblib/host/usbhhub.o
 .debug_ranges  0x00000638       0x58 ./usblib/host/usbhmsc.o
 .debug_ranges  0x00000690      0x1e8 ./usblib/host/usbhostenum.o
 .debug_ranges  0x00000878       0x50 ./usblib/host/usbhscsi.o
 .debug_ranges  0x000008c8       0x60 ./usblib/device/usbdaudio.o
 .debug_ranges  0x00000928       0xb0 ./usblib/device/usbdbulk.o
 .debug_ranges  0x000009d8      0x118 ./usblib/device/usbdcdc.o
 .debug_ranges  0x00000af0       0x48 ./usblib/device/usbdcdesc.o
 .debug_ranges  0x00000b38       0xa0 ./usblib/device/usbdcomp.o
 .debug_ranges  0x00000bd8       0x28 ./usblib/device/usbdconfig.o
 .debug_ranges  0x00000c00       0x38 ./usblib/device/usbddfu-rt.o
 .debug_ranges  0x00000c38       0xf8 ./usblib/device/usbdenum.o
 .debug_ranges  0x00000d30       0x10 ./usblib/device/usbdhandler.o
 .debug_ranges  0x00000d40      0x110 ./usblib/device/usbdhid.o
 .debug_ranges  0x00000e50       0x60 ./usblib/device/usbdhidkeyb.o
 .debug_ranges  0x00000eb0       0x50 ./usblib/device/usbdhidmouse.o
 .debug_ranges  0x00000f00       0xa8 ./usblib/device/usbdmsc.o
 .debug_ranges  0x00000fa8       0x48 ./hal/HAL.o
 .debug_ranges  0x00000ff0       0x38 ./driverlib/cpu.o
 .debug_ranges  0x00001028       0x50 ./driverlib/fpu.o
 .debug_ranges  0x00001078      0x190 ./driverlib/gpio.o
 .debug_ranges  0x00001208       0x90 ./driverlib/interrupt.o
 .debug_ranges  0x00001298      0x1d0 ./driverlib/sysctl.o
 .debug_ranges  0x00001468      0x140 ./driverlib/timer.o
 .debug_ranges  0x000015a8      0x180 ./driverlib/uart.o
 .debug_ranges  0x00001728      0x348 ./driverlib/usb.o
 .debug_ranges  0x00001a70       0x98 ./driverlib/watchdog.o
 .debug_ranges  0x00001b08       0xa8 ./brtos/BRTOS.o
 .debug_ranges  0x00001bb0       0x38 ./brtos/OSInfo.o
 .debug_ranges  0x00001be8       0x60 ./brtos/OSTime.o
 .debug_ranges  0x00001c48       0x28 ./brtos/mbox.o
 .debug_ranges  0x00001c70       0x28 ./brtos/mutex.o
 .debug_ranges  0x00001c98       0x58 ./brtos/queue.o
 .debug_ranges  0x00001cf0       0x28 ./brtos/semaphore.o
 .debug_ranges  0x00001d18       0x58 ./brtos/stimer.o
 .debug_ranges  0x00001d70       0x68 ./USB/cdc/usb_terminal.o
 .debug_ranges  0x00001dd8       0x38 ./USB/cdc/usb_terminal_commands.o
 .debug_ranges  0x00001e10       0x60 ./USB/cdc/virtual_com.o

.debug_line     0x00000000     0xb199
 .debug_line    0x00000000      0x1b1 ./buttons.o
 .debug_line    0x000001b1      0x178 ./main.o
 .debug_line    0x00000329      0x1a6 ./rgb.o
 .debug_line    0x000004cf      0x435 ./tarefas.o
 .debug_line    0x00000904      0x153 ./tm4c123gh6pm_startup_ccs_gcc.o
 .debug_line    0x00000a57      0x305 ./usblib/usbbuffer.o
 .debug_line    0x00000d5c      0x1e4 ./usblib/usbdesc.o
 .debug_line    0x00000f40      0x49c ./usblib/usbdma.o
 .debug_line    0x000013dc      0x136 ./usblib/usbkeyboardmap.o
 .debug_line    0x00001512      0x31d ./usblib/usbmode.o
 .debug_line    0x0000182f      0x2b2 ./usblib/usbringbuf.o
 .debug_line    0x00001ae1      0x199 ./usblib/usbtick.o
 .debug_line    0x00001c7a      0x129 ./usblib/usbulpi.o
 .debug_line    0x00001da3      0x439 ./usblib/host/usbhaudio.o
 .debug_line    0x000021dc      0x2dc ./usblib/host/usbhhid.o
 .debug_line    0x000024b8      0x2be ./usblib/host/usbhhidkeyboard.o
 .debug_line    0x00002776      0x201 ./usblib/host/usbhhidmouse.o
 .debug_line    0x00002977      0x3f5 ./usblib/host/usbhhub.o
 .debug_line    0x00002d6c      0x2b2 ./usblib/host/usbhmsc.o
 .debug_line    0x0000301e      0xaea ./usblib/host/usbhostenum.o
 .debug_line    0x00003b08      0x241 ./usblib/host/usbhscsi.o
 .debug_line    0x00003d49      0x348 ./usblib/device/usbdaudio.o
 .debug_line    0x00004091      0x3d0 ./usblib/device/usbdbulk.o
 .debug_line    0x00004461      0x5c9 ./usblib/device/usbdcdc.o
 .debug_line    0x00004a2a      0x22a ./usblib/device/usbdcdesc.o
 .debug_line    0x00004c54      0x498 ./usblib/device/usbdcomp.o
 .debug_line    0x000050ec      0x281 ./usblib/device/usbdconfig.o
 .debug_line    0x0000536d      0x246 ./usblib/device/usbddfu-rt.o
 .debug_line    0x000055b3      0x627 ./usblib/device/usbdenum.o
 .debug_line    0x00005bda      0x116 ./usblib/device/usbdhandler.o
 .debug_line    0x00005cf0      0x5d0 ./usblib/device/usbdhid.o
 .debug_line    0x000062c0      0x376 ./usblib/device/usbdhidkeyb.o
 .debug_line    0x00006636      0x2ec ./usblib/device/usbdhidmouse.o
 .debug_line    0x00006922      0x529 ./usblib/device/usbdmsc.o
 .debug_line    0x00006e4b      0x150 ./hal/HAL.o
 .debug_line    0x00006f9b      0x172 ./driverlib/cpu.o
 .debug_line    0x0000710d      0x19d ./driverlib/fpu.o
 .debug_line    0x000072aa      0x603 ./driverlib/gpio.o
 .debug_line    0x000078ad      0x293 ./driverlib/interrupt.o
 .debug_line    0x00007b40      0x6a6 ./driverlib/sysctl.o
 .debug_line    0x000081e6      0x496 ./driverlib/timer.o
 .debug_line    0x0000867c      0x4fb ./driverlib/uart.o
 .debug_line    0x00008b77      0xa4f ./driverlib/usb.o
 .debug_line    0x000095c6      0x26a ./driverlib/watchdog.o
 .debug_line    0x00009830      0x386 ./brtos/BRTOS.o
 .debug_line    0x00009bb6      0x1c3 ./brtos/OSInfo.o
 .debug_line    0x00009d79      0x1b6 ./brtos/OSTime.o
 .debug_line    0x00009f2f      0x15e ./brtos/mbox.o
 .debug_line    0x0000a08d      0x179 ./brtos/mutex.o
 .debug_line    0x0000a206      0x229 ./brtos/queue.o
 .debug_line    0x0000a42f      0x15d ./brtos/semaphore.o
 .debug_line    0x0000a58c      0x242 ./brtos/stimer.o
 .debug_line    0x0000a7ce      0x1a4 ./USB/usb_serial_structs.o
 .debug_line    0x0000a972      0x25f ./USB/cdc/usb_terminal.o
 .debug_line    0x0000abd1      0x251 ./USB/cdc/usb_terminal_commands.o
 .debug_line    0x0000ae22      0x377 ./USB/cdc/virtual_com.o

.debug_str      0x00000000     0x89b8
 .debug_str     0x00000000      0x27c ./buttons.o
                                0x2d0 (size before relaxing)
 .debug_str     0x0000027c        0xf ./main.o
                                0x1f0 (size before relaxing)
 .debug_str     0x0000028b       0x98 ./rgb.o
                                0x272 (size before relaxing)
 .debug_str     0x00000323      0x738 ./tarefas.o
                                0x9ed (size before relaxing)
 .debug_str     0x00000a5b       0x8f ./tm4c123gh6pm_startup_ccs_gcc.o
                                0x270 (size before relaxing)
 .debug_str     0x00000aea      0x28c ./usblib/usbbuffer.o
                                0x53f (size before relaxing)
 .debug_str     0x00000d76      0x244 ./usblib/usbdesc.o
                                0x45f (size before relaxing)
 .debug_str     0x00000fba      0x447 ./usblib/usbdma.o
                                0x6af (size before relaxing)
 .debug_str     0x00001401       0x81 ./usblib/usbkeyboardmap.o
                                0x263 (size before relaxing)
 .debug_str     0x00001482      0x3e1 ./usblib/usbmode.o
                                0x804 (size before relaxing)
 .debug_str     0x00001863      0x178 ./usblib/usbringbuf.o
                                0x3d1 (size before relaxing)
 .debug_str     0x000019db      0x113 ./usblib/usbtick.o
                                0x2fc (size before relaxing)
 .debug_str     0x00001aee       0x46 ./usblib/usbulpi.o
                                0x233 (size before relaxing)
 .debug_str     0x00001b34      0x708 ./usblib/host/usbhaudio.o
                                0xb69 (size before relaxing)
 .debug_str     0x0000223c      0x1e1 ./usblib/host/usbhhid.o
                                0x79b (size before relaxing)
 .debug_str     0x0000241d      0x1eb ./usblib/host/usbhhidkeyboard.o
                                0x4fb (size before relaxing)
 .debug_str     0x00002608       0xff ./usblib/host/usbhhidmouse.o
                                0x399 (size before relaxing)
 .debug_str     0x00002707      0x3d7 ./usblib/host/usbhhub.o
                                0x97a (size before relaxing)
 .debug_str     0x00002ade      0x16b ./usblib/host/usbhmsc.o
                                0x70f (size before relaxing)
 .debug_str     0x00002c49      0xadd ./usblib/host/usbhostenum.o
                               0x135f (size before relaxing)
 .debug_str     0x00003726      0x191 ./usblib/host/usbhscsi.o
                                0x3db (size before relaxing)
 .debug_str     0x000038b7      0x37b ./usblib/device/usbdaudio.o
                                0xbd9 (size before relaxing)
 .debug_str     0x00003c32      0x343 ./usblib/device/usbdbulk.o
                                0xa8a (size before relaxing)
 .debug_str     0x00003f75      0x3cc ./usblib/device/usbdcdc.o
                                0xdfd (size before relaxing)
 .debug_str     0x00004341      0x14a ./usblib/device/usbdcdesc.o
                                0x50a (size before relaxing)
 .debug_str     0x0000448b      0x26a ./usblib/device/usbdcomp.o
                                0xb3c (size before relaxing)
 .debug_str     0x000046f5      0x10a ./usblib/device/usbdconfig.o
                                0x7ec (size before relaxing)
 .debug_str     0x000047ff      0x1a5 ./usblib/device/usbddfu-rt.o
                                0x6c4 (size before relaxing)
 .debug_str     0x000049a4      0x3a8 ./usblib/device/usbdenum.o
                                0xea5 (size before relaxing)
 .debug_str     0x00004d4c       0x34 ./usblib/device/usbdhandler.o
                                0x20f (size before relaxing)
 .debug_str     0x00004d80      0x4ba ./usblib/device/usbdhid.o
                                0xd0d (size before relaxing)
 .debug_str     0x0000523a      0x40f ./usblib/device/usbdhidkeyb.o
                                0xca3 (size before relaxing)
 .debug_str     0x00005649      0x22e ./usblib/device/usbdhidmouse.o
                                0xbb1 (size before relaxing)
 .debug_str     0x00005877      0x40d ./usblib/device/usbdmsc.o
                                0xd6b (size before relaxing)
 .debug_str     0x00005c84      0x14f ./hal/HAL.o
                                0x303 (size before relaxing)
 .debug_str     0x00005dd3       0x62 ./driverlib/cpu.o
                                0x22b (size before relaxing)
 .debug_str     0x00005e35       0xb2 ./driverlib/fpu.o
                                0x27c (size before relaxing)
 .debug_str     0x00005ee7      0x4bf ./driverlib/gpio.o
                                0x704 (size before relaxing)
 .debug_str     0x000063a6      0x192 ./driverlib/interrupt.o
                                0x3ea (size before relaxing)
 .debug_str     0x00006538      0x673 ./driverlib/sysctl.o
                                0x8bb (size before relaxing)
 .debug_str     0x00006bab      0x39c ./driverlib/timer.o
                                0x5e9 (size before relaxing)
 .debug_str     0x00006f47      0x400 ./driverlib/uart.o
                                0x6ca (size before relaxing)
 .debug_str     0x00007347      0x8a4 ./driverlib/usb.o
                                0xbfc (size before relaxing)
 .debug_str     0x00007beb      0x16a ./driverlib/watchdog.o
                                0x356 (size before relaxing)
 .debug_str     0x00007d55      0x318 ./brtos/BRTOS.o
                                0x64f (size before relaxing)
 .debug_str     0x0000806d       0xd7 ./brtos/OSInfo.o
                                0x38e (size before relaxing)
 .debug_str     0x00008144       0xcb ./brtos/OSTime.o
                                0x2cc (size before relaxing)
 .debug_str     0x0000820f       0x58 ./brtos/mbox.o
                                0x33a (size before relaxing)
 .debug_str     0x00008267       0x5a ./brtos/mutex.o
                                0x370 (size before relaxing)
 .debug_str     0x000082c1       0xae ./brtos/queue.o
                                0x40f (size before relaxing)
 .debug_str     0x0000836f       0x41 ./brtos/semaphore.o
                                0x316 (size before relaxing)
 .debug_str     0x000083b0      0x1e9 ./brtos/stimer.o
                                0x456 (size before relaxing)
 .debug_str     0x00008599      0x114 ./USB/usb_serial_structs.o
                                0x895 (size before relaxing)
 .debug_str     0x000086ad      0x16c ./USB/cdc/usb_terminal.o
                                0x3da (size before relaxing)
 .debug_str     0x00008819       0xa4 ./USB/cdc/usb_terminal_commands.o
                                0x362 (size before relaxing)
 .debug_str     0x000088bd       0xfb ./USB/cdc/virtual_com.o
                                0x4d4 (size before relaxing)

.debug_frame    0x00000000     0x6ffc
 .debug_frame   0x00000000       0x6c ./buttons.o
 .debug_frame   0x0000006c       0x30 ./main.o
 .debug_frame   0x0000009c       0xe4 ./rgb.o
 .debug_frame   0x00000180      0x160 ./tarefas.o
 .debug_frame   0x000002e0       0x78 ./tm4c123gh6pm_startup_ccs_gcc.o
 .debug_frame   0x00000358      0x228 ./usblib/usbbuffer.o
 .debug_frame   0x00000580       0xc0 ./usblib/usbdesc.o
 .debug_frame   0x00000640      0x368 ./usblib/usbdma.o
 .debug_frame   0x000009a8      0x1ac ./usblib/usbmode.o
 .debug_frame   0x00000b54      0x1f4 ./usblib/usbringbuf.o
 .debug_frame   0x00000d48       0x80 ./usblib/usbtick.o
 .debug_frame   0x00000dc8       0x50 ./usblib/usbulpi.o
 .debug_frame   0x00000e18      0x2a4 ./usblib/host/usbhaudio.o
 .debug_frame   0x000010bc      0x188 ./usblib/host/usbhhid.o
 .debug_frame   0x00001244      0x14c ./usblib/host/usbhhidkeyboard.o
 .debug_frame   0x00001390       0xf0 ./usblib/host/usbhhidmouse.o
 .debug_frame   0x00001480      0x270 ./usblib/host/usbhhub.o
 .debug_frame   0x000016f0      0x14c ./usblib/host/usbhmsc.o
 .debug_frame   0x0000183c      0x758 ./usblib/host/usbhostenum.o
 .debug_frame   0x00001f94      0x130 ./usblib/host/usbhscsi.o
 .debug_frame   0x000020c4      0x16c ./usblib/device/usbdaudio.o
 .debug_frame   0x00002230      0x2a0 ./usblib/device/usbdbulk.o
 .debug_frame   0x000024d0      0x43c ./usblib/device/usbdcdc.o
 .debug_frame   0x0000290c      0x108 ./usblib/device/usbdcdesc.o
 .debug_frame   0x00002a14      0x264 ./usblib/device/usbdcomp.o
 .debug_frame   0x00002c78       0x88 ./usblib/device/usbdconfig.o
 .debug_frame   0x00002d00       0xcc ./usblib/device/usbddfu-rt.o
 .debug_frame   0x00002dcc      0x3b8 ./usblib/device/usbdenum.o
 .debug_frame   0x00003184       0x30 ./usblib/device/usbdhandler.o
 .debug_frame   0x000031b4      0x410 ./usblib/device/usbdhid.o
 .debug_frame   0x000035c4      0x164 ./usblib/device/usbdhidkeyb.o
 .debug_frame   0x00003728      0x12c ./usblib/device/usbdhidmouse.o
 .debug_frame   0x00003854      0x28c ./usblib/device/usbdmsc.o
 .debug_frame   0x00003ae0       0xd4 ./hal/HAL.o
 .debug_frame   0x00003bb4       0x70 ./driverlib/cpu.o
 .debug_frame   0x00003c24       0xf8 ./driverlib/fpu.o
 .debug_frame   0x00003d1c      0x5e4 ./driverlib/gpio.o
 .debug_frame   0x00004300      0x1ec ./driverlib/interrupt.o
 .debug_frame   0x000044ec      0x618 ./driverlib/sysctl.o
 .debug_frame   0x00004b04      0x464 ./driverlib/timer.o
 .debug_frame   0x00004f68      0x540 ./driverlib/uart.o
 .debug_frame   0x000054a8      0xb80 ./driverlib/usb.o
 .debug_frame   0x00006028      0x210 ./driverlib/watchdog.o
 .debug_frame   0x00006238      0x268 ./brtos/BRTOS.o
 .debug_frame   0x000064a0       0xc8 ./brtos/OSInfo.o
 .debug_frame   0x00006568      0x158 ./brtos/OSTime.o
 .debug_frame   0x000066c0       0x90 ./brtos/mbox.o
 .debug_frame   0x00006750       0x90 ./brtos/mutex.o
 .debug_frame   0x000067e0      0x150 ./brtos/queue.o
 .debug_frame   0x00006930       0x90 ./brtos/semaphore.o
 .debug_frame   0x000069c0      0x148 ./brtos/stimer.o
 .debug_frame   0x00006b08      0x168 ./USB/cdc/usb_terminal.o
 .debug_frame   0x00006c70       0xd0 ./USB/cdc/usb_terminal_commands.o
 .debug_frame   0x00006d40      0x158 ./USB/cdc/virtual_com.o
 .debug_frame   0x00006e98       0x28 c:/ti/ccsv6/tools/compiler/gcc-arm-none-eabi-4_8-2014q3/bin/../lib/gcc/arm-none-eabi/4.8.4/../../../../arm-none-eabi/lib/armv7e-m/fpu\libc.a(lib_a-exit.o)
 .debug_frame   0x00006ec0       0x2c c:/ti/ccsv6/tools/compiler/gcc-arm-none-eabi-4_8-2014q3/bin/../lib/gcc/arm-none-eabi/4.8.4/../../../../arm-none-eabi/lib/armv7e-m/fpu\libc.a(lib_a-init.o)
 .debug_frame   0x00006eec       0x2c c:/ti/ccsv6/tools/compiler/gcc-arm-none-eabi-4_8-2014q3/bin/../lib/gcc/arm-none-eabi/4.8.4/../../../../arm-none-eabi/lib/armv7e-m/fpu\libc.a(lib_a-memset.o)
 .debug_frame   0x00006f18       0x48 c:/ti/ccsv6/tools/compiler/gcc-arm-none-eabi-4_8-2014q3/bin/../lib/gcc/arm-none-eabi/4.8.4/../../../../arm-none-eabi/lib/armv7e-m/fpu\libc.a(lib_a-__call_atexit.o)
 .debug_frame   0x00006f60       0x20 c:/ti/ccsv6/tools/compiler/gcc-arm-none-eabi-4_8-2014q3/bin/../lib/gcc/arm-none-eabi/4.8.4/../../../../arm-none-eabi/lib/armv7e-m/fpu\libc.a(lib_a-atexit.o)
 .debug_frame   0x00006f80       0x2c c:/ti/ccsv6/tools/compiler/gcc-arm-none-eabi-4_8-2014q3/bin/../lib/gcc/arm-none-eabi/4.8.4/../../../../arm-none-eabi/lib/armv7e-m/fpu\libc.a(lib_a-fini.o)
 .debug_frame   0x00006fac       0x30 c:/ti/ccsv6/tools/compiler/gcc-arm-none-eabi-4_8-2014q3/bin/../lib/gcc/arm-none-eabi/4.8.4/../../../../arm-none-eabi/lib/armv7e-m/fpu\libc.a(lib_a-__atexit.o)
 .debug_frame   0x00006fdc       0x20 c:/ti/ccsv6/tools/compiler/gcc-arm-none-eabi-4_8-2014q3/bin/../lib/gcc/arm-none-eabi/4.8.4/../../../../arm-none-eabi/lib/armv7e-m/fpu\libnosys.a(_exit.o)
